
ctarget:     file format elf64-x86-64


Disassembly of section .init:

0000000000400c48 <_init>:
  400c48:	48 83 ec 08          	sub    $0x8,%rsp
  400c4c:	48 8b 05 a5 43 20 00 	mov    0x2043a5(%rip),%rax        # 604ff8 <__gmon_start__>
  400c53:	48 85 c0             	test   %rax,%rax
  400c56:	74 02                	je     400c5a <_init+0x12>
  400c58:	ff d0                	callq  *%rax
  400c5a:	48 83 c4 08          	add    $0x8,%rsp
  400c5e:	c3                   	retq   

Disassembly of section .plt:

0000000000400c60 <.plt>:
  400c60:	ff 35 a2 43 20 00    	pushq  0x2043a2(%rip)        # 605008 <_GLOBAL_OFFSET_TABLE_+0x8>
  400c66:	ff 25 a4 43 20 00    	jmpq   *0x2043a4(%rip)        # 605010 <_GLOBAL_OFFSET_TABLE_+0x10>
  400c6c:	0f 1f 40 00          	nopl   0x0(%rax)

0000000000400c70 <strcasecmp@plt>:
  400c70:	ff 25 a2 43 20 00    	jmpq   *0x2043a2(%rip)        # 605018 <strcasecmp@GLIBC_2.2.5>
  400c76:	68 00 00 00 00       	pushq  $0x0
  400c7b:	e9 e0 ff ff ff       	jmpq   400c60 <.plt>

0000000000400c80 <__errno_location@plt>:
  400c80:	ff 25 9a 43 20 00    	jmpq   *0x20439a(%rip)        # 605020 <__errno_location@GLIBC_2.2.5>
  400c86:	68 01 00 00 00       	pushq  $0x1
  400c8b:	e9 d0 ff ff ff       	jmpq   400c60 <.plt>

0000000000400c90 <srandom@plt>:
  400c90:	ff 25 92 43 20 00    	jmpq   *0x204392(%rip)        # 605028 <srandom@GLIBC_2.2.5>
  400c96:	68 02 00 00 00       	pushq  $0x2
  400c9b:	e9 c0 ff ff ff       	jmpq   400c60 <.plt>

0000000000400ca0 <strncmp@plt>:
  400ca0:	ff 25 8a 43 20 00    	jmpq   *0x20438a(%rip)        # 605030 <strncmp@GLIBC_2.2.5>
  400ca6:	68 03 00 00 00       	pushq  $0x3
  400cab:	e9 b0 ff ff ff       	jmpq   400c60 <.plt>

0000000000400cb0 <strcpy@plt>:
  400cb0:	ff 25 82 43 20 00    	jmpq   *0x204382(%rip)        # 605038 <strcpy@GLIBC_2.2.5>
  400cb6:	68 04 00 00 00       	pushq  $0x4
  400cbb:	e9 a0 ff ff ff       	jmpq   400c60 <.plt>

0000000000400cc0 <puts@plt>:
  400cc0:	ff 25 7a 43 20 00    	jmpq   *0x20437a(%rip)        # 605040 <puts@GLIBC_2.2.5>
  400cc6:	68 05 00 00 00       	pushq  $0x5
  400ccb:	e9 90 ff ff ff       	jmpq   400c60 <.plt>

0000000000400cd0 <write@plt>:
  400cd0:	ff 25 72 43 20 00    	jmpq   *0x204372(%rip)        # 605048 <write@GLIBC_2.2.5>
  400cd6:	68 06 00 00 00       	pushq  $0x6
  400cdb:	e9 80 ff ff ff       	jmpq   400c60 <.plt>

0000000000400ce0 <__stack_chk_fail@plt>:
  400ce0:	ff 25 6a 43 20 00    	jmpq   *0x20436a(%rip)        # 605050 <__stack_chk_fail@GLIBC_2.4>
  400ce6:	68 07 00 00 00       	pushq  $0x7
  400ceb:	e9 70 ff ff ff       	jmpq   400c60 <.plt>

0000000000400cf0 <mmap@plt>:
  400cf0:	ff 25 62 43 20 00    	jmpq   *0x204362(%rip)        # 605058 <mmap@GLIBC_2.2.5>
  400cf6:	68 08 00 00 00       	pushq  $0x8
  400cfb:	e9 60 ff ff ff       	jmpq   400c60 <.plt>

0000000000400d00 <memset@plt>:
  400d00:	ff 25 5a 43 20 00    	jmpq   *0x20435a(%rip)        # 605060 <memset@GLIBC_2.2.5>
  400d06:	68 09 00 00 00       	pushq  $0x9
  400d0b:	e9 50 ff ff ff       	jmpq   400c60 <.plt>

0000000000400d10 <alarm@plt>:
  400d10:	ff 25 52 43 20 00    	jmpq   *0x204352(%rip)        # 605068 <alarm@GLIBC_2.2.5>
  400d16:	68 0a 00 00 00       	pushq  $0xa
  400d1b:	e9 40 ff ff ff       	jmpq   400c60 <.plt>

0000000000400d20 <close@plt>:
  400d20:	ff 25 4a 43 20 00    	jmpq   *0x20434a(%rip)        # 605070 <close@GLIBC_2.2.5>
  400d26:	68 0b 00 00 00       	pushq  $0xb
  400d2b:	e9 30 ff ff ff       	jmpq   400c60 <.plt>

0000000000400d30 <read@plt>:
  400d30:	ff 25 42 43 20 00    	jmpq   *0x204342(%rip)        # 605078 <read@GLIBC_2.2.5>
  400d36:	68 0c 00 00 00       	pushq  $0xc
  400d3b:	e9 20 ff ff ff       	jmpq   400c60 <.plt>

0000000000400d40 <signal@plt>:
  400d40:	ff 25 3a 43 20 00    	jmpq   *0x20433a(%rip)        # 605080 <signal@GLIBC_2.2.5>
  400d46:	68 0d 00 00 00       	pushq  $0xd
  400d4b:	e9 10 ff ff ff       	jmpq   400c60 <.plt>

0000000000400d50 <gethostbyname@plt>:
  400d50:	ff 25 32 43 20 00    	jmpq   *0x204332(%rip)        # 605088 <gethostbyname@GLIBC_2.2.5>
  400d56:	68 0e 00 00 00       	pushq  $0xe
  400d5b:	e9 00 ff ff ff       	jmpq   400c60 <.plt>

0000000000400d60 <__memmove_chk@plt>:
  400d60:	ff 25 2a 43 20 00    	jmpq   *0x20432a(%rip)        # 605090 <__memmove_chk@GLIBC_2.3.4>
  400d66:	68 0f 00 00 00       	pushq  $0xf
  400d6b:	e9 f0 fe ff ff       	jmpq   400c60 <.plt>

0000000000400d70 <strtol@plt>:
  400d70:	ff 25 22 43 20 00    	jmpq   *0x204322(%rip)        # 605098 <strtol@GLIBC_2.2.5>
  400d76:	68 10 00 00 00       	pushq  $0x10
  400d7b:	e9 e0 fe ff ff       	jmpq   400c60 <.plt>

0000000000400d80 <memcpy@plt>:
  400d80:	ff 25 1a 43 20 00    	jmpq   *0x20431a(%rip)        # 6050a0 <memcpy@GLIBC_2.14>
  400d86:	68 11 00 00 00       	pushq  $0x11
  400d8b:	e9 d0 fe ff ff       	jmpq   400c60 <.plt>

0000000000400d90 <time@plt>:
  400d90:	ff 25 12 43 20 00    	jmpq   *0x204312(%rip)        # 6050a8 <time@GLIBC_2.2.5>
  400d96:	68 12 00 00 00       	pushq  $0x12
  400d9b:	e9 c0 fe ff ff       	jmpq   400c60 <.plt>

0000000000400da0 <random@plt>:
  400da0:	ff 25 0a 43 20 00    	jmpq   *0x20430a(%rip)        # 6050b0 <random@GLIBC_2.2.5>
  400da6:	68 13 00 00 00       	pushq  $0x13
  400dab:	e9 b0 fe ff ff       	jmpq   400c60 <.plt>

0000000000400db0 <_IO_getc@plt>:
  400db0:	ff 25 02 43 20 00    	jmpq   *0x204302(%rip)        # 6050b8 <_IO_getc@GLIBC_2.2.5>
  400db6:	68 14 00 00 00       	pushq  $0x14
  400dbb:	e9 a0 fe ff ff       	jmpq   400c60 <.plt>

0000000000400dc0 <__isoc99_sscanf@plt>:
  400dc0:	ff 25 fa 42 20 00    	jmpq   *0x2042fa(%rip)        # 6050c0 <__isoc99_sscanf@GLIBC_2.7>
  400dc6:	68 15 00 00 00       	pushq  $0x15
  400dcb:	e9 90 fe ff ff       	jmpq   400c60 <.plt>

0000000000400dd0 <munmap@plt>:
  400dd0:	ff 25 f2 42 20 00    	jmpq   *0x2042f2(%rip)        # 6050c8 <munmap@GLIBC_2.2.5>
  400dd6:	68 16 00 00 00       	pushq  $0x16
  400ddb:	e9 80 fe ff ff       	jmpq   400c60 <.plt>

0000000000400de0 <__printf_chk@plt>:
  400de0:	ff 25 ea 42 20 00    	jmpq   *0x2042ea(%rip)        # 6050d0 <__printf_chk@GLIBC_2.3.4>
  400de6:	68 17 00 00 00       	pushq  $0x17
  400deb:	e9 70 fe ff ff       	jmpq   400c60 <.plt>

0000000000400df0 <fopen@plt>:
  400df0:	ff 25 e2 42 20 00    	jmpq   *0x2042e2(%rip)        # 6050d8 <fopen@GLIBC_2.2.5>
  400df6:	68 18 00 00 00       	pushq  $0x18
  400dfb:	e9 60 fe ff ff       	jmpq   400c60 <.plt>

0000000000400e00 <getopt@plt>:
  400e00:	ff 25 da 42 20 00    	jmpq   *0x2042da(%rip)        # 6050e0 <getopt@GLIBC_2.2.5>
  400e06:	68 19 00 00 00       	pushq  $0x19
  400e0b:	e9 50 fe ff ff       	jmpq   400c60 <.plt>

0000000000400e10 <strtoul@plt>:
  400e10:	ff 25 d2 42 20 00    	jmpq   *0x2042d2(%rip)        # 6050e8 <strtoul@GLIBC_2.2.5>
  400e16:	68 1a 00 00 00       	pushq  $0x1a
  400e1b:	e9 40 fe ff ff       	jmpq   400c60 <.plt>

0000000000400e20 <gethostname@plt>:
  400e20:	ff 25 ca 42 20 00    	jmpq   *0x2042ca(%rip)        # 6050f0 <gethostname@GLIBC_2.2.5>
  400e26:	68 1b 00 00 00       	pushq  $0x1b
  400e2b:	e9 30 fe ff ff       	jmpq   400c60 <.plt>

0000000000400e30 <exit@plt>:
  400e30:	ff 25 c2 42 20 00    	jmpq   *0x2042c2(%rip)        # 6050f8 <exit@GLIBC_2.2.5>
  400e36:	68 1c 00 00 00       	pushq  $0x1c
  400e3b:	e9 20 fe ff ff       	jmpq   400c60 <.plt>

0000000000400e40 <connect@plt>:
  400e40:	ff 25 ba 42 20 00    	jmpq   *0x2042ba(%rip)        # 605100 <connect@GLIBC_2.2.5>
  400e46:	68 1d 00 00 00       	pushq  $0x1d
  400e4b:	e9 10 fe ff ff       	jmpq   400c60 <.plt>

0000000000400e50 <__fprintf_chk@plt>:
  400e50:	ff 25 b2 42 20 00    	jmpq   *0x2042b2(%rip)        # 605108 <__fprintf_chk@GLIBC_2.3.4>
  400e56:	68 1e 00 00 00       	pushq  $0x1e
  400e5b:	e9 00 fe ff ff       	jmpq   400c60 <.plt>

0000000000400e60 <__sprintf_chk@plt>:
  400e60:	ff 25 aa 42 20 00    	jmpq   *0x2042aa(%rip)        # 605110 <__sprintf_chk@GLIBC_2.3.4>
  400e66:	68 1f 00 00 00       	pushq  $0x1f
  400e6b:	e9 f0 fd ff ff       	jmpq   400c60 <.plt>

0000000000400e70 <socket@plt>:
  400e70:	ff 25 a2 42 20 00    	jmpq   *0x2042a2(%rip)        # 605118 <socket@GLIBC_2.2.5>
  400e76:	68 20 00 00 00       	pushq  $0x20
  400e7b:	e9 e0 fd ff ff       	jmpq   400c60 <.plt>

Disassembly of section .text:

0000000000400e80 <_start>:
  400e80:	31 ed                	xor    %ebp,%ebp
  400e82:	49 89 d1             	mov    %rdx,%r9
  400e85:	5e                   	pop    %rsi
  400e86:	48 89 e2             	mov    %rsp,%rdx
  400e89:	48 83 e4 f0          	and    $0xfffffffffffffff0,%rsp
  400e8d:	50                   	push   %rax
  400e8e:	54                   	push   %rsp
  400e8f:	49 c7 c0 f0 2e 40 00 	mov    $0x402ef0,%r8
  400e96:	48 c7 c1 80 2e 40 00 	mov    $0x402e80,%rcx
  400e9d:	48 c7 c7 73 11 40 00 	mov    $0x401173,%rdi
  400ea4:	ff 15 46 41 20 00    	callq  *0x204146(%rip)        # 604ff0 <__libc_start_main@GLIBC_2.2.5>
  400eaa:	f4                   	hlt    
  400eab:	0f 1f 44 00 00       	nopl   0x0(%rax,%rax,1)

0000000000400eb0 <_dl_relocate_static_pie>:
  400eb0:	f3 c3                	repz retq 
  400eb2:	66 2e 0f 1f 84 00 00 	nopw   %cs:0x0(%rax,%rax,1)
  400eb9:	00 00 00 
  400ebc:	0f 1f 40 00          	nopl   0x0(%rax)

0000000000400ec0 <deregister_tm_clones>:
  400ec0:	55                   	push   %rbp
  400ec1:	b8 90 54 60 00       	mov    $0x605490,%eax
  400ec6:	48 3d 90 54 60 00    	cmp    $0x605490,%rax
  400ecc:	48 89 e5             	mov    %rsp,%rbp
  400ecf:	74 17                	je     400ee8 <deregister_tm_clones+0x28>
  400ed1:	b8 00 00 00 00       	mov    $0x0,%eax
  400ed6:	48 85 c0             	test   %rax,%rax
  400ed9:	74 0d                	je     400ee8 <deregister_tm_clones+0x28>
  400edb:	5d                   	pop    %rbp
  400edc:	bf 90 54 60 00       	mov    $0x605490,%edi
  400ee1:	ff e0                	jmpq   *%rax
  400ee3:	0f 1f 44 00 00       	nopl   0x0(%rax,%rax,1)
  400ee8:	5d                   	pop    %rbp
  400ee9:	c3                   	retq   
  400eea:	66 0f 1f 44 00 00    	nopw   0x0(%rax,%rax,1)

0000000000400ef0 <register_tm_clones>:
  400ef0:	be 90 54 60 00       	mov    $0x605490,%esi
  400ef5:	55                   	push   %rbp
  400ef6:	48 81 ee 90 54 60 00 	sub    $0x605490,%rsi
  400efd:	48 89 e5             	mov    %rsp,%rbp
  400f00:	48 c1 fe 03          	sar    $0x3,%rsi
  400f04:	48 89 f0             	mov    %rsi,%rax
  400f07:	48 c1 e8 3f          	shr    $0x3f,%rax
  400f0b:	48 01 c6             	add    %rax,%rsi
  400f0e:	48 d1 fe             	sar    %rsi
  400f11:	74 15                	je     400f28 <register_tm_clones+0x38>
  400f13:	b8 00 00 00 00       	mov    $0x0,%eax
  400f18:	48 85 c0             	test   %rax,%rax
  400f1b:	74 0b                	je     400f28 <register_tm_clones+0x38>
  400f1d:	5d                   	pop    %rbp
  400f1e:	bf 90 54 60 00       	mov    $0x605490,%edi
  400f23:	ff e0                	jmpq   *%rax
  400f25:	0f 1f 00             	nopl   (%rax)
  400f28:	5d                   	pop    %rbp
  400f29:	c3                   	retq   
  400f2a:	66 0f 1f 44 00 00    	nopw   0x0(%rax,%rax,1)

0000000000400f30 <__do_global_dtors_aux>:
  400f30:	80 3d 91 45 20 00 00 	cmpb   $0x0,0x204591(%rip)        # 6054c8 <completed.7698>
  400f37:	75 17                	jne    400f50 <__do_global_dtors_aux+0x20>
  400f39:	55                   	push   %rbp
  400f3a:	48 89 e5             	mov    %rsp,%rbp
  400f3d:	e8 7e ff ff ff       	callq  400ec0 <deregister_tm_clones>
  400f42:	c6 05 7f 45 20 00 01 	movb   $0x1,0x20457f(%rip)        # 6054c8 <completed.7698>
  400f49:	5d                   	pop    %rbp
  400f4a:	c3                   	retq   
  400f4b:	0f 1f 44 00 00       	nopl   0x0(%rax,%rax,1)
  400f50:	f3 c3                	repz retq 
  400f52:	0f 1f 40 00          	nopl   0x0(%rax)
  400f56:	66 2e 0f 1f 84 00 00 	nopw   %cs:0x0(%rax,%rax,1)
  400f5d:	00 00 00 

0000000000400f60 <frame_dummy>:
  400f60:	55                   	push   %rbp
  400f61:	48 89 e5             	mov    %rsp,%rbp
  400f64:	5d                   	pop    %rbp
  400f65:	eb 89                	jmp    400ef0 <register_tm_clones>

0000000000400f67 <usage>:
  400f67:	48 83 ec 08          	sub    $0x8,%rsp
  400f6b:	48 89 fa             	mov    %rdi,%rdx
  400f6e:	83 3d 93 45 20 00 00 	cmpl   $0x0,0x204593(%rip)        # 605508 <is_checker>
  400f75:	74 46                	je     400fbd <usage+0x56>
  400f77:	be 08 2f 40 00       	mov    $0x402f08,%esi
  400f7c:	bf 01 00 00 00       	mov    $0x1,%edi
  400f81:	b8 00 00 00 00       	mov    $0x0,%eax
  400f86:	e8 55 fe ff ff       	callq  400de0 <__printf_chk@plt>
  400f8b:	bf 40 2f 40 00       	mov    $0x402f40,%edi
  400f90:	e8 2b fd ff ff       	callq  400cc0 <puts@plt>
  400f95:	bf b8 30 40 00       	mov    $0x4030b8,%edi
  400f9a:	e8 21 fd ff ff       	callq  400cc0 <puts@plt>
  400f9f:	bf 68 2f 40 00       	mov    $0x402f68,%edi
  400fa4:	e8 17 fd ff ff       	callq  400cc0 <puts@plt>
  400fa9:	bf d2 30 40 00       	mov    $0x4030d2,%edi
  400fae:	e8 0d fd ff ff       	callq  400cc0 <puts@plt>
  400fb3:	bf 00 00 00 00       	mov    $0x0,%edi
  400fb8:	e8 73 fe ff ff       	callq  400e30 <exit@plt>
  400fbd:	be ee 30 40 00       	mov    $0x4030ee,%esi
  400fc2:	bf 01 00 00 00       	mov    $0x1,%edi
  400fc7:	b8 00 00 00 00       	mov    $0x0,%eax
  400fcc:	e8 0f fe ff ff       	callq  400de0 <__printf_chk@plt>
  400fd1:	bf 90 2f 40 00       	mov    $0x402f90,%edi
  400fd6:	e8 e5 fc ff ff       	callq  400cc0 <puts@plt>
  400fdb:	bf b8 2f 40 00       	mov    $0x402fb8,%edi
  400fe0:	e8 db fc ff ff       	callq  400cc0 <puts@plt>
  400fe5:	bf 0c 31 40 00       	mov    $0x40310c,%edi
  400fea:	e8 d1 fc ff ff       	callq  400cc0 <puts@plt>
  400fef:	eb c2                	jmp    400fb3 <usage+0x4c>

0000000000400ff1 <initialize_target>:
  400ff1:	55                   	push   %rbp
  400ff2:	53                   	push   %rbx
  400ff3:	48 81 ec 18 21 00 00 	sub    $0x2118,%rsp
  400ffa:	89 f5                	mov    %esi,%ebp
  400ffc:	64 48 8b 04 25 28 00 	mov    %fs:0x28,%rax
  401003:	00 00 
  401005:	48 89 84 24 08 21 00 	mov    %rax,0x2108(%rsp)
  40100c:	00 
  40100d:	31 c0                	xor    %eax,%eax
  40100f:	89 3d e3 44 20 00    	mov    %edi,0x2044e3(%rip)        # 6054f8 <check_level>
  401015:	8b 3d 2d 41 20 00    	mov    0x20412d(%rip),%edi        # 605148 <target_id>
  40101b:	e8 39 1e 00 00       	callq  402e59 <gencookie>
  401020:	89 05 de 44 20 00    	mov    %eax,0x2044de(%rip)        # 605504 <cookie>
  401026:	89 c7                	mov    %eax,%edi
  401028:	e8 2c 1e 00 00       	callq  402e59 <gencookie>
  40102d:	89 05 cd 44 20 00    	mov    %eax,0x2044cd(%rip)        # 605500 <authkey>
  401033:	8b 05 0f 41 20 00    	mov    0x20410f(%rip),%eax        # 605148 <target_id>
  401039:	8d 78 01             	lea    0x1(%rax),%edi
  40103c:	e8 4f fc ff ff       	callq  400c90 <srandom@plt>
  401041:	e8 5a fd ff ff       	callq  400da0 <random@plt>
  401046:	89 c7                	mov    %eax,%edi
  401048:	e8 f2 02 00 00       	callq  40133f <scramble>
  40104d:	89 c3                	mov    %eax,%ebx
  40104f:	85 ed                	test   %ebp,%ebp
  401051:	75 54                	jne    4010a7 <initialize_target+0xb6>
  401053:	b8 00 00 00 00       	mov    $0x0,%eax
  401058:	01 d8                	add    %ebx,%eax
  40105a:	0f b7 c0             	movzwl %ax,%eax
  40105d:	8d 04 c5 00 01 00 00 	lea    0x100(,%rax,8),%eax
  401064:	89 c0                	mov    %eax,%eax
  401066:	48 89 05 13 44 20 00 	mov    %rax,0x204413(%rip)        # 605480 <buf_offset>
  40106d:	c6 05 b4 50 20 00 63 	movb   $0x63,0x2050b4(%rip)        # 606128 <target_prefix>
  401074:	83 3d 0d 44 20 00 00 	cmpl   $0x0,0x20440d(%rip)        # 605488 <notify>
  40107b:	74 09                	je     401086 <initialize_target+0x95>
  40107d:	83 3d 84 44 20 00 00 	cmpl   $0x0,0x204484(%rip)        # 605508 <is_checker>
  401084:	74 39                	je     4010bf <initialize_target+0xce>
  401086:	48 8b 84 24 08 21 00 	mov    0x2108(%rsp),%rax
  40108d:	00 
  40108e:	64 48 33 04 25 28 00 	xor    %fs:0x28,%rax
  401095:	00 00 
  401097:	0f 85 d1 00 00 00    	jne    40116e <initialize_target+0x17d>
  40109d:	48 81 c4 18 21 00 00 	add    $0x2118,%rsp
  4010a4:	5b                   	pop    %rbx
  4010a5:	5d                   	pop    %rbp
  4010a6:	c3                   	retq   
  4010a7:	bf 00 00 00 00       	mov    $0x0,%edi
  4010ac:	e8 df fc ff ff       	callq  400d90 <time@plt>
  4010b1:	89 c7                	mov    %eax,%edi
  4010b3:	e8 d8 fb ff ff       	callq  400c90 <srandom@plt>
  4010b8:	e8 e3 fc ff ff       	callq  400da0 <random@plt>
  4010bd:	eb 99                	jmp    401058 <initialize_target+0x67>
  4010bf:	be 00 01 00 00       	mov    $0x100,%esi
  4010c4:	48 89 e7             	mov    %rsp,%rdi
  4010c7:	e8 54 fd ff ff       	callq  400e20 <gethostname@plt>
  4010cc:	89 c5                	mov    %eax,%ebp
  4010ce:	85 c0                	test   %eax,%eax
  4010d0:	75 23                	jne    4010f5 <initialize_target+0x104>
  4010d2:	89 c3                	mov    %eax,%ebx
  4010d4:	48 63 c3             	movslq %ebx,%rax
  4010d7:	48 8b 3c c5 60 51 60 	mov    0x605160(,%rax,8),%rdi
  4010de:	00 
  4010df:	48 85 ff             	test   %rdi,%rdi
  4010e2:	74 2a                	je     40110e <initialize_target+0x11d>
  4010e4:	48 89 e6             	mov    %rsp,%rsi
  4010e7:	e8 84 fb ff ff       	callq  400c70 <strcasecmp@plt>
  4010ec:	85 c0                	test   %eax,%eax
  4010ee:	74 19                	je     401109 <initialize_target+0x118>
  4010f0:	83 c3 01             	add    $0x1,%ebx
  4010f3:	eb df                	jmp    4010d4 <initialize_target+0xe3>
  4010f5:	bf e8 2f 40 00       	mov    $0x402fe8,%edi
  4010fa:	e8 c1 fb ff ff       	callq  400cc0 <puts@plt>
  4010ff:	bf 08 00 00 00       	mov    $0x8,%edi
  401104:	e8 27 fd ff ff       	callq  400e30 <exit@plt>
  401109:	bd 01 00 00 00       	mov    $0x1,%ebp
  40110e:	85 ed                	test   %ebp,%ebp
  401110:	74 3b                	je     40114d <initialize_target+0x15c>
  401112:	48 8d bc 24 00 01 00 	lea    0x100(%rsp),%rdi
  401119:	00 
  40111a:	e8 8f 1a 00 00       	callq  402bae <init_driver>
  40111f:	85 c0                	test   %eax,%eax
  401121:	0f 89 5f ff ff ff    	jns    401086 <initialize_target+0x95>
  401127:	48 8d 94 24 00 01 00 	lea    0x100(%rsp),%rdx
  40112e:	00 
  40112f:	be 60 30 40 00       	mov    $0x403060,%esi
  401134:	bf 01 00 00 00       	mov    $0x1,%edi
  401139:	b8 00 00 00 00       	mov    $0x0,%eax
  40113e:	e8 9d fc ff ff       	callq  400de0 <__printf_chk@plt>
  401143:	bf 08 00 00 00       	mov    $0x8,%edi
  401148:	e8 e3 fc ff ff       	callq  400e30 <exit@plt>
  40114d:	48 89 e2             	mov    %rsp,%rdx
  401150:	be 20 30 40 00       	mov    $0x403020,%esi
  401155:	bf 01 00 00 00       	mov    $0x1,%edi
  40115a:	b8 00 00 00 00       	mov    $0x0,%eax
  40115f:	e8 7c fc ff ff       	callq  400de0 <__printf_chk@plt>
  401164:	bf 08 00 00 00       	mov    $0x8,%edi
  401169:	e8 c2 fc ff ff       	callq  400e30 <exit@plt>
  40116e:	e8 6d fb ff ff       	callq  400ce0 <__stack_chk_fail@plt>

0000000000401173 <main>:
  401173:	41 56                	push   %r14
  401175:	41 55                	push   %r13
  401177:	41 54                	push   %r12
  401179:	55                   	push   %rbp
  40117a:	53                   	push   %rbx
  40117b:	41 89 fc             	mov    %edi,%r12d
  40117e:	48 89 f3             	mov    %rsi,%rbx
  401181:	be eb 1e 40 00       	mov    $0x401eeb,%esi
  401186:	bf 0b 00 00 00       	mov    $0xb,%edi
  40118b:	e8 b0 fb ff ff       	callq  400d40 <signal@plt>
  401190:	be 9d 1e 40 00       	mov    $0x401e9d,%esi
  401195:	bf 07 00 00 00       	mov    $0x7,%edi
  40119a:	e8 a1 fb ff ff       	callq  400d40 <signal@plt>
  40119f:	be 39 1f 40 00       	mov    $0x401f39,%esi
  4011a4:	bf 04 00 00 00       	mov    $0x4,%edi
  4011a9:	e8 92 fb ff ff       	callq  400d40 <signal@plt>
  4011ae:	83 3d 53 43 20 00 00 	cmpl   $0x0,0x204353(%rip)        # 605508 <is_checker>
  4011b5:	75 24                	jne    4011db <main+0x68>
  4011b7:	bd 25 31 40 00       	mov    $0x403125,%ebp
  4011bc:	48 8b 05 dd 42 20 00 	mov    0x2042dd(%rip),%rax        # 6054a0 <stdin@@GLIBC_2.2.5>
  4011c3:	48 89 05 26 43 20 00 	mov    %rax,0x204326(%rip)        # 6054f0 <infile>
  4011ca:	41 bd 00 00 00 00    	mov    $0x0,%r13d
  4011d0:	41 be 00 00 00 00    	mov    $0x0,%r14d
  4011d6:	e9 85 00 00 00       	jmpq   401260 <main+0xed>
  4011db:	be 87 1f 40 00       	mov    $0x401f87,%esi
  4011e0:	bf 0e 00 00 00       	mov    $0xe,%edi
  4011e5:	e8 56 fb ff ff       	callq  400d40 <signal@plt>
  4011ea:	bf 05 00 00 00       	mov    $0x5,%edi
  4011ef:	e8 1c fb ff ff       	callq  400d10 <alarm@plt>
  4011f4:	bd 2a 31 40 00       	mov    $0x40312a,%ebp
  4011f9:	eb c1                	jmp    4011bc <main+0x49>
  4011fb:	48 8b 3b             	mov    (%rbx),%rdi
  4011fe:	e8 64 fd ff ff       	callq  400f67 <usage>
  401203:	be f5 33 40 00       	mov    $0x4033f5,%esi
  401208:	48 8b 3d 99 42 20 00 	mov    0x204299(%rip),%rdi        # 6054a8 <optarg@@GLIBC_2.2.5>
  40120f:	e8 dc fb ff ff       	callq  400df0 <fopen@plt>
  401214:	48 89 05 d5 42 20 00 	mov    %rax,0x2042d5(%rip)        # 6054f0 <infile>
  40121b:	48 85 c0             	test   %rax,%rax
  40121e:	75 40                	jne    401260 <main+0xed>
  401220:	48 8b 0d 81 42 20 00 	mov    0x204281(%rip),%rcx        # 6054a8 <optarg@@GLIBC_2.2.5>
  401227:	ba 32 31 40 00       	mov    $0x403132,%edx
  40122c:	be 01 00 00 00       	mov    $0x1,%esi
  401231:	48 8b 3d 88 42 20 00 	mov    0x204288(%rip),%rdi        # 6054c0 <stderr@@GLIBC_2.2.5>
  401238:	e8 13 fc ff ff       	callq  400e50 <__fprintf_chk@plt>
  40123d:	b8 01 00 00 00       	mov    $0x1,%eax
  401242:	e9 cc 00 00 00       	jmpq   401313 <main+0x1a0>
  401247:	ba 10 00 00 00       	mov    $0x10,%edx
  40124c:	be 00 00 00 00       	mov    $0x0,%esi
  401251:	48 8b 3d 50 42 20 00 	mov    0x204250(%rip),%rdi        # 6054a8 <optarg@@GLIBC_2.2.5>
  401258:	e8 b3 fb ff ff       	callq  400e10 <strtoul@plt>
  40125d:	41 89 c6             	mov    %eax,%r14d
  401260:	48 89 ea             	mov    %rbp,%rdx
  401263:	48 89 de             	mov    %rbx,%rsi
  401266:	44 89 e7             	mov    %r12d,%edi
  401269:	e8 92 fb ff ff       	callq  400e00 <getopt@plt>
  40126e:	3c ff                	cmp    $0xff,%al
  401270:	74 57                	je     4012c9 <main+0x156>
  401272:	0f be d0             	movsbl %al,%edx
  401275:	83 e8 61             	sub    $0x61,%eax
  401278:	3c 10                	cmp    $0x10,%al
  40127a:	77 31                	ja     4012ad <main+0x13a>
  40127c:	0f b6 c0             	movzbl %al,%eax
  40127f:	ff 24 c5 70 31 40 00 	jmpq   *0x403170(,%rax,8)
  401286:	ba 0a 00 00 00       	mov    $0xa,%edx
  40128b:	be 00 00 00 00       	mov    $0x0,%esi
  401290:	48 8b 3d 11 42 20 00 	mov    0x204211(%rip),%rdi        # 6054a8 <optarg@@GLIBC_2.2.5>
  401297:	e8 d4 fa ff ff       	callq  400d70 <strtol@plt>
  40129c:	41 89 c5             	mov    %eax,%r13d
  40129f:	eb bf                	jmp    401260 <main+0xed>
  4012a1:	c7 05 dd 41 20 00 00 	movl   $0x0,0x2041dd(%rip)        # 605488 <notify>
  4012a8:	00 00 00 
  4012ab:	eb b3                	jmp    401260 <main+0xed>
  4012ad:	be 4f 31 40 00       	mov    $0x40314f,%esi
  4012b2:	bf 01 00 00 00       	mov    $0x1,%edi
  4012b7:	b8 00 00 00 00       	mov    $0x0,%eax
  4012bc:	e8 1f fb ff ff       	callq  400de0 <__printf_chk@plt>
  4012c1:	48 8b 3b             	mov    (%rbx),%rdi
  4012c4:	e8 9e fc ff ff       	callq  400f67 <usage>
  4012c9:	be 00 00 00 00       	mov    $0x0,%esi
  4012ce:	44 89 ef             	mov    %r13d,%edi
  4012d1:	e8 1b fd ff ff       	callq  400ff1 <initialize_target>
  4012d6:	83 3d 2b 42 20 00 00 	cmpl   $0x0,0x20422b(%rip)        # 605508 <is_checker>
  4012dd:	74 09                	je     4012e8 <main+0x175>
  4012df:	44 39 35 1a 42 20 00 	cmp    %r14d,0x20421a(%rip)        # 605500 <authkey>
  4012e6:	75 34                	jne    40131c <main+0x1a9>
  4012e8:	8b 15 16 42 20 00    	mov    0x204216(%rip),%edx        # 605504 <cookie>
  4012ee:	be 62 31 40 00       	mov    $0x403162,%esi
  4012f3:	bf 01 00 00 00       	mov    $0x1,%edi
  4012f8:	b8 00 00 00 00       	mov    $0x0,%eax
  4012fd:	e8 de fa ff ff       	callq  400de0 <__printf_chk@plt>
  401302:	48 8b 3d 77 41 20 00 	mov    0x204177(%rip),%rdi        # 605480 <buf_offset>
  401309:	e8 7b 0d 00 00       	callq  402089 <stable_launch>
  40130e:	b8 00 00 00 00       	mov    $0x0,%eax
  401313:	5b                   	pop    %rbx
  401314:	5d                   	pop    %rbp
  401315:	41 5c                	pop    %r12
  401317:	41 5d                	pop    %r13
  401319:	41 5e                	pop    %r14
  40131b:	c3                   	retq   
  40131c:	44 89 f2             	mov    %r14d,%edx
  40131f:	be 88 30 40 00       	mov    $0x403088,%esi
  401324:	bf 01 00 00 00       	mov    $0x1,%edi
  401329:	b8 00 00 00 00       	mov    $0x0,%eax
  40132e:	e8 ad fa ff ff       	callq  400de0 <__printf_chk@plt>
  401333:	b8 00 00 00 00       	mov    $0x0,%eax
  401338:	e8 e9 07 00 00       	callq  401b26 <check_fail>
  40133d:	eb a9                	jmp    4012e8 <main+0x175>

000000000040133f <scramble>:
  40133f:	48 83 ec 38          	sub    $0x38,%rsp
  401343:	64 48 8b 04 25 28 00 	mov    %fs:0x28,%rax
  40134a:	00 00 
  40134c:	48 89 44 24 28       	mov    %rax,0x28(%rsp)
  401351:	31 c0                	xor    %eax,%eax
  401353:	eb 10                	jmp    401365 <scramble+0x26>
  401355:	69 d0 72 b8 00 00    	imul   $0xb872,%eax,%edx
  40135b:	01 fa                	add    %edi,%edx
  40135d:	89 c1                	mov    %eax,%ecx
  40135f:	89 14 8c             	mov    %edx,(%rsp,%rcx,4)
  401362:	83 c0 01             	add    $0x1,%eax
  401365:	83 f8 09             	cmp    $0x9,%eax
  401368:	76 eb                	jbe    401355 <scramble+0x16>
  40136a:	8b 44 24 1c          	mov    0x1c(%rsp),%eax
  40136e:	69 c0 a5 04 00 00    	imul   $0x4a5,%eax,%eax
  401374:	89 44 24 1c          	mov    %eax,0x1c(%rsp)
  401378:	8b 44 24 0c          	mov    0xc(%rsp),%eax
  40137c:	69 c0 72 52 00 00    	imul   $0x5272,%eax,%eax
  401382:	89 44 24 0c          	mov    %eax,0xc(%rsp)
  401386:	8b 44 24 20          	mov    0x20(%rsp),%eax
  40138a:	69 c0 ec 29 00 00    	imul   $0x29ec,%eax,%eax
  401390:	89 44 24 20          	mov    %eax,0x20(%rsp)
  401394:	8b 44 24 08          	mov    0x8(%rsp),%eax
  401398:	69 c0 ca 01 00 00    	imul   $0x1ca,%eax,%eax
  40139e:	89 44 24 08          	mov    %eax,0x8(%rsp)
  4013a2:	8b 44 24 0c          	mov    0xc(%rsp),%eax
  4013a6:	69 c0 b8 ec 00 00    	imul   $0xecb8,%eax,%eax
  4013ac:	89 44 24 0c          	mov    %eax,0xc(%rsp)
  4013b0:	8b 44 24 24          	mov    0x24(%rsp),%eax
  4013b4:	69 c0 82 14 00 00    	imul   $0x1482,%eax,%eax
  4013ba:	89 44 24 24          	mov    %eax,0x24(%rsp)
  4013be:	8b 44 24 14          	mov    0x14(%rsp),%eax
  4013c2:	69 c0 95 2a 00 00    	imul   $0x2a95,%eax,%eax
  4013c8:	89 44 24 14          	mov    %eax,0x14(%rsp)
  4013cc:	8b 04 24             	mov    (%rsp),%eax
  4013cf:	69 c0 b1 b1 00 00    	imul   $0xb1b1,%eax,%eax
  4013d5:	89 04 24             	mov    %eax,(%rsp)
  4013d8:	8b 44 24 24          	mov    0x24(%rsp),%eax
  4013dc:	69 c0 be 5e 00 00    	imul   $0x5ebe,%eax,%eax
  4013e2:	89 44 24 24          	mov    %eax,0x24(%rsp)
  4013e6:	8b 04 24             	mov    (%rsp),%eax
  4013e9:	69 c0 4d b3 00 00    	imul   $0xb34d,%eax,%eax
  4013ef:	89 04 24             	mov    %eax,(%rsp)
  4013f2:	8b 44 24 14          	mov    0x14(%rsp),%eax
  4013f6:	69 c0 4b ce 00 00    	imul   $0xce4b,%eax,%eax
  4013fc:	89 44 24 14          	mov    %eax,0x14(%rsp)
  401400:	8b 44 24 10          	mov    0x10(%rsp),%eax
  401404:	69 c0 c7 16 00 00    	imul   $0x16c7,%eax,%eax
  40140a:	89 44 24 10          	mov    %eax,0x10(%rsp)
  40140e:	8b 44 24 0c          	mov    0xc(%rsp),%eax
  401412:	69 c0 f4 13 00 00    	imul   $0x13f4,%eax,%eax
  401418:	89 44 24 0c          	mov    %eax,0xc(%rsp)
  40141c:	8b 44 24 24          	mov    0x24(%rsp),%eax
  401420:	69 c0 1d 11 00 00    	imul   $0x111d,%eax,%eax
  401426:	89 44 24 24          	mov    %eax,0x24(%rsp)
  40142a:	8b 44 24 10          	mov    0x10(%rsp),%eax
  40142e:	69 c0 40 2c 00 00    	imul   $0x2c40,%eax,%eax
  401434:	89 44 24 10          	mov    %eax,0x10(%rsp)
  401438:	8b 44 24 1c          	mov    0x1c(%rsp),%eax
  40143c:	69 c0 8f 78 00 00    	imul   $0x788f,%eax,%eax
  401442:	89 44 24 1c          	mov    %eax,0x1c(%rsp)
  401446:	8b 44 24 18          	mov    0x18(%rsp),%eax
  40144a:	69 c0 77 a8 00 00    	imul   $0xa877,%eax,%eax
  401450:	89 44 24 18          	mov    %eax,0x18(%rsp)
  401454:	8b 44 24 14          	mov    0x14(%rsp),%eax
  401458:	69 c0 82 8d 00 00    	imul   $0x8d82,%eax,%eax
  40145e:	89 44 24 14          	mov    %eax,0x14(%rsp)
  401462:	8b 44 24 10          	mov    0x10(%rsp),%eax
  401466:	69 c0 e8 cb 00 00    	imul   $0xcbe8,%eax,%eax
  40146c:	89 44 24 10          	mov    %eax,0x10(%rsp)
  401470:	8b 44 24 0c          	mov    0xc(%rsp),%eax
  401474:	69 c0 87 b4 00 00    	imul   $0xb487,%eax,%eax
  40147a:	89 44 24 0c          	mov    %eax,0xc(%rsp)
  40147e:	8b 44 24 14          	mov    0x14(%rsp),%eax
  401482:	69 c0 cf 3b 00 00    	imul   $0x3bcf,%eax,%eax
  401488:	89 44 24 14          	mov    %eax,0x14(%rsp)
  40148c:	8b 44 24 24          	mov    0x24(%rsp),%eax
  401490:	69 c0 f2 6e 00 00    	imul   $0x6ef2,%eax,%eax
  401496:	89 44 24 24          	mov    %eax,0x24(%rsp)
  40149a:	8b 44 24 0c          	mov    0xc(%rsp),%eax
  40149e:	69 c0 d8 ab 00 00    	imul   $0xabd8,%eax,%eax
  4014a4:	89 44 24 0c          	mov    %eax,0xc(%rsp)
  4014a8:	8b 44 24 24          	mov    0x24(%rsp),%eax
  4014ac:	69 c0 39 b6 00 00    	imul   $0xb639,%eax,%eax
  4014b2:	89 44 24 24          	mov    %eax,0x24(%rsp)
  4014b6:	8b 44 24 10          	mov    0x10(%rsp),%eax
  4014ba:	69 c0 df 6d 00 00    	imul   $0x6ddf,%eax,%eax
  4014c0:	89 44 24 10          	mov    %eax,0x10(%rsp)
  4014c4:	8b 44 24 18          	mov    0x18(%rsp),%eax
  4014c8:	69 c0 d7 d5 00 00    	imul   $0xd5d7,%eax,%eax
  4014ce:	89 44 24 18          	mov    %eax,0x18(%rsp)
  4014d2:	8b 44 24 08          	mov    0x8(%rsp),%eax
  4014d6:	69 c0 bb 2f 00 00    	imul   $0x2fbb,%eax,%eax
  4014dc:	89 44 24 08          	mov    %eax,0x8(%rsp)
  4014e0:	8b 44 24 18          	mov    0x18(%rsp),%eax
  4014e4:	69 c0 15 fd 00 00    	imul   $0xfd15,%eax,%eax
  4014ea:	89 44 24 18          	mov    %eax,0x18(%rsp)
  4014ee:	8b 44 24 08          	mov    0x8(%rsp),%eax
  4014f2:	69 c0 ad 37 00 00    	imul   $0x37ad,%eax,%eax
  4014f8:	89 44 24 08          	mov    %eax,0x8(%rsp)
  4014fc:	8b 44 24 1c          	mov    0x1c(%rsp),%eax
  401500:	69 c0 cd 03 00 00    	imul   $0x3cd,%eax,%eax
  401506:	89 44 24 1c          	mov    %eax,0x1c(%rsp)
  40150a:	8b 04 24             	mov    (%rsp),%eax
  40150d:	69 c0 52 f7 00 00    	imul   $0xf752,%eax,%eax
  401513:	89 04 24             	mov    %eax,(%rsp)
  401516:	8b 44 24 04          	mov    0x4(%rsp),%eax
  40151a:	69 c0 d2 94 00 00    	imul   $0x94d2,%eax,%eax
  401520:	89 44 24 04          	mov    %eax,0x4(%rsp)
  401524:	8b 44 24 1c          	mov    0x1c(%rsp),%eax
  401528:	69 c0 5e 47 00 00    	imul   $0x475e,%eax,%eax
  40152e:	89 44 24 1c          	mov    %eax,0x1c(%rsp)
  401532:	8b 44 24 14          	mov    0x14(%rsp),%eax
  401536:	69 c0 2c 72 00 00    	imul   $0x722c,%eax,%eax
  40153c:	89 44 24 14          	mov    %eax,0x14(%rsp)
  401540:	8b 44 24 14          	mov    0x14(%rsp),%eax
  401544:	69 c0 a1 b1 00 00    	imul   $0xb1a1,%eax,%eax
  40154a:	89 44 24 14          	mov    %eax,0x14(%rsp)
  40154e:	8b 44 24 0c          	mov    0xc(%rsp),%eax
  401552:	69 c0 e8 cb 00 00    	imul   $0xcbe8,%eax,%eax
  401558:	89 44 24 0c          	mov    %eax,0xc(%rsp)
  40155c:	8b 44 24 10          	mov    0x10(%rsp),%eax
  401560:	69 c0 bc ef 00 00    	imul   $0xefbc,%eax,%eax
  401566:	89 44 24 10          	mov    %eax,0x10(%rsp)
  40156a:	8b 44 24 14          	mov    0x14(%rsp),%eax
  40156e:	69 c0 d6 53 00 00    	imul   $0x53d6,%eax,%eax
  401574:	89 44 24 14          	mov    %eax,0x14(%rsp)
  401578:	8b 44 24 04          	mov    0x4(%rsp),%eax
  40157c:	69 c0 7e 5b 00 00    	imul   $0x5b7e,%eax,%eax
  401582:	89 44 24 04          	mov    %eax,0x4(%rsp)
  401586:	8b 44 24 14          	mov    0x14(%rsp),%eax
  40158a:	69 c0 2c a6 00 00    	imul   $0xa62c,%eax,%eax
  401590:	89 44 24 14          	mov    %eax,0x14(%rsp)
  401594:	8b 44 24 1c          	mov    0x1c(%rsp),%eax
  401598:	69 c0 95 73 00 00    	imul   $0x7395,%eax,%eax
  40159e:	89 44 24 1c          	mov    %eax,0x1c(%rsp)
  4015a2:	8b 44 24 24          	mov    0x24(%rsp),%eax
  4015a6:	69 c0 87 05 00 00    	imul   $0x587,%eax,%eax
  4015ac:	89 44 24 24          	mov    %eax,0x24(%rsp)
  4015b0:	8b 44 24 18          	mov    0x18(%rsp),%eax
  4015b4:	69 c0 a2 68 00 00    	imul   $0x68a2,%eax,%eax
  4015ba:	89 44 24 18          	mov    %eax,0x18(%rsp)
  4015be:	8b 44 24 1c          	mov    0x1c(%rsp),%eax
  4015c2:	69 c0 01 e7 00 00    	imul   $0xe701,%eax,%eax
  4015c8:	89 44 24 1c          	mov    %eax,0x1c(%rsp)
  4015cc:	8b 04 24             	mov    (%rsp),%eax
  4015cf:	69 c0 ce 10 00 00    	imul   $0x10ce,%eax,%eax
  4015d5:	89 04 24             	mov    %eax,(%rsp)
  4015d8:	8b 44 24 20          	mov    0x20(%rsp),%eax
  4015dc:	69 c0 3d 04 00 00    	imul   $0x43d,%eax,%eax
  4015e2:	89 44 24 20          	mov    %eax,0x20(%rsp)
  4015e6:	8b 44 24 0c          	mov    0xc(%rsp),%eax
  4015ea:	69 c0 2a 67 00 00    	imul   $0x672a,%eax,%eax
  4015f0:	89 44 24 0c          	mov    %eax,0xc(%rsp)
  4015f4:	8b 44 24 04          	mov    0x4(%rsp),%eax
  4015f8:	69 c0 e9 a7 00 00    	imul   $0xa7e9,%eax,%eax
  4015fe:	89 44 24 04          	mov    %eax,0x4(%rsp)
  401602:	8b 44 24 24          	mov    0x24(%rsp),%eax
  401606:	69 c0 64 bb 00 00    	imul   $0xbb64,%eax,%eax
  40160c:	89 44 24 24          	mov    %eax,0x24(%rsp)
  401610:	8b 44 24 18          	mov    0x18(%rsp),%eax
  401614:	69 c0 d0 c1 00 00    	imul   $0xc1d0,%eax,%eax
  40161a:	89 44 24 18          	mov    %eax,0x18(%rsp)
  40161e:	8b 44 24 18          	mov    0x18(%rsp),%eax
  401622:	69 c0 c8 40 00 00    	imul   $0x40c8,%eax,%eax
  401628:	89 44 24 18          	mov    %eax,0x18(%rsp)
  40162c:	8b 44 24 24          	mov    0x24(%rsp),%eax
  401630:	69 c0 77 5a 00 00    	imul   $0x5a77,%eax,%eax
  401636:	89 44 24 24          	mov    %eax,0x24(%rsp)
  40163a:	8b 44 24 04          	mov    0x4(%rsp),%eax
  40163e:	69 c0 92 c8 00 00    	imul   $0xc892,%eax,%eax
  401644:	89 44 24 04          	mov    %eax,0x4(%rsp)
  401648:	8b 44 24 08          	mov    0x8(%rsp),%eax
  40164c:	69 c0 1a cc 00 00    	imul   $0xcc1a,%eax,%eax
  401652:	89 44 24 08          	mov    %eax,0x8(%rsp)
  401656:	8b 04 24             	mov    (%rsp),%eax
  401659:	69 c0 5c b8 00 00    	imul   $0xb85c,%eax,%eax
  40165f:	89 04 24             	mov    %eax,(%rsp)
  401662:	8b 44 24 04          	mov    0x4(%rsp),%eax
  401666:	69 c0 6d ed 00 00    	imul   $0xed6d,%eax,%eax
  40166c:	89 44 24 04          	mov    %eax,0x4(%rsp)
  401670:	8b 44 24 04          	mov    0x4(%rsp),%eax
  401674:	69 c0 49 ee 00 00    	imul   $0xee49,%eax,%eax
  40167a:	89 44 24 04          	mov    %eax,0x4(%rsp)
  40167e:	8b 44 24 24          	mov    0x24(%rsp),%eax
  401682:	69 c0 42 cf 00 00    	imul   $0xcf42,%eax,%eax
  401688:	89 44 24 24          	mov    %eax,0x24(%rsp)
  40168c:	8b 44 24 1c          	mov    0x1c(%rsp),%eax
  401690:	69 c0 91 f5 00 00    	imul   $0xf591,%eax,%eax
  401696:	89 44 24 1c          	mov    %eax,0x1c(%rsp)
  40169a:	8b 44 24 20          	mov    0x20(%rsp),%eax
  40169e:	69 c0 3b f7 00 00    	imul   $0xf73b,%eax,%eax
  4016a4:	89 44 24 20          	mov    %eax,0x20(%rsp)
  4016a8:	8b 44 24 18          	mov    0x18(%rsp),%eax
  4016ac:	69 c0 11 a1 00 00    	imul   $0xa111,%eax,%eax
  4016b2:	89 44 24 18          	mov    %eax,0x18(%rsp)
  4016b6:	8b 44 24 08          	mov    0x8(%rsp),%eax
  4016ba:	69 c0 80 0e 00 00    	imul   $0xe80,%eax,%eax
  4016c0:	89 44 24 08          	mov    %eax,0x8(%rsp)
  4016c4:	8b 44 24 20          	mov    0x20(%rsp),%eax
  4016c8:	69 c0 87 94 00 00    	imul   $0x9487,%eax,%eax
  4016ce:	89 44 24 20          	mov    %eax,0x20(%rsp)
  4016d2:	8b 44 24 10          	mov    0x10(%rsp),%eax
  4016d6:	69 c0 c5 b6 00 00    	imul   $0xb6c5,%eax,%eax
  4016dc:	89 44 24 10          	mov    %eax,0x10(%rsp)
  4016e0:	8b 44 24 24          	mov    0x24(%rsp),%eax
  4016e4:	69 c0 7f d0 00 00    	imul   $0xd07f,%eax,%eax
  4016ea:	89 44 24 24          	mov    %eax,0x24(%rsp)
  4016ee:	8b 44 24 10          	mov    0x10(%rsp),%eax
  4016f2:	69 c0 f2 bc 00 00    	imul   $0xbcf2,%eax,%eax
  4016f8:	89 44 24 10          	mov    %eax,0x10(%rsp)
  4016fc:	8b 44 24 04          	mov    0x4(%rsp),%eax
  401700:	69 c0 4d 06 00 00    	imul   $0x64d,%eax,%eax
  401706:	89 44 24 04          	mov    %eax,0x4(%rsp)
  40170a:	8b 44 24 24          	mov    0x24(%rsp),%eax
  40170e:	69 c0 cd 41 00 00    	imul   $0x41cd,%eax,%eax
  401714:	89 44 24 24          	mov    %eax,0x24(%rsp)
  401718:	8b 44 24 04          	mov    0x4(%rsp),%eax
  40171c:	69 c0 b6 c5 00 00    	imul   $0xc5b6,%eax,%eax
  401722:	89 44 24 04          	mov    %eax,0x4(%rsp)
  401726:	8b 44 24 20          	mov    0x20(%rsp),%eax
  40172a:	69 c0 f0 f2 00 00    	imul   $0xf2f0,%eax,%eax
  401730:	89 44 24 20          	mov    %eax,0x20(%rsp)
  401734:	8b 44 24 04          	mov    0x4(%rsp),%eax
  401738:	69 c0 2d 80 00 00    	imul   $0x802d,%eax,%eax
  40173e:	89 44 24 04          	mov    %eax,0x4(%rsp)
  401742:	8b 44 24 08          	mov    0x8(%rsp),%eax
  401746:	69 c0 03 aa 00 00    	imul   $0xaa03,%eax,%eax
  40174c:	89 44 24 08          	mov    %eax,0x8(%rsp)
  401750:	8b 44 24 08          	mov    0x8(%rsp),%eax
  401754:	69 c0 52 d3 00 00    	imul   $0xd352,%eax,%eax
  40175a:	89 44 24 08          	mov    %eax,0x8(%rsp)
  40175e:	8b 44 24 08          	mov    0x8(%rsp),%eax
  401762:	69 c0 62 c5 00 00    	imul   $0xc562,%eax,%eax
  401768:	89 44 24 08          	mov    %eax,0x8(%rsp)
  40176c:	8b 44 24 0c          	mov    0xc(%rsp),%eax
  401770:	69 c0 89 2f 00 00    	imul   $0x2f89,%eax,%eax
  401776:	89 44 24 0c          	mov    %eax,0xc(%rsp)
  40177a:	8b 44 24 04          	mov    0x4(%rsp),%eax
  40177e:	69 c0 44 cf 00 00    	imul   $0xcf44,%eax,%eax
  401784:	89 44 24 04          	mov    %eax,0x4(%rsp)
  401788:	8b 44 24 20          	mov    0x20(%rsp),%eax
  40178c:	69 c0 15 b8 00 00    	imul   $0xb815,%eax,%eax
  401792:	89 44 24 20          	mov    %eax,0x20(%rsp)
  401796:	8b 44 24 10          	mov    0x10(%rsp),%eax
  40179a:	69 c0 d7 d8 00 00    	imul   $0xd8d7,%eax,%eax
  4017a0:	89 44 24 10          	mov    %eax,0x10(%rsp)
  4017a4:	8b 44 24 18          	mov    0x18(%rsp),%eax
  4017a8:	69 c0 2e 94 00 00    	imul   $0x942e,%eax,%eax
  4017ae:	89 44 24 18          	mov    %eax,0x18(%rsp)
  4017b2:	8b 44 24 20          	mov    0x20(%rsp),%eax
  4017b6:	69 c0 88 9c 00 00    	imul   $0x9c88,%eax,%eax
  4017bc:	89 44 24 20          	mov    %eax,0x20(%rsp)
  4017c0:	8b 04 24             	mov    (%rsp),%eax
  4017c3:	69 c0 31 08 00 00    	imul   $0x831,%eax,%eax
  4017c9:	89 04 24             	mov    %eax,(%rsp)
  4017cc:	8b 44 24 10          	mov    0x10(%rsp),%eax
  4017d0:	69 c0 f6 75 00 00    	imul   $0x75f6,%eax,%eax
  4017d6:	89 44 24 10          	mov    %eax,0x10(%rsp)
  4017da:	8b 44 24 24          	mov    0x24(%rsp),%eax
  4017de:	69 c0 e3 70 00 00    	imul   $0x70e3,%eax,%eax
  4017e4:	89 44 24 24          	mov    %eax,0x24(%rsp)
  4017e8:	8b 44 24 14          	mov    0x14(%rsp),%eax
  4017ec:	69 c0 5d dd 00 00    	imul   $0xdd5d,%eax,%eax
  4017f2:	89 44 24 14          	mov    %eax,0x14(%rsp)
  4017f6:	8b 44 24 24          	mov    0x24(%rsp),%eax
  4017fa:	69 c0 aa c5 00 00    	imul   $0xc5aa,%eax,%eax
  401800:	89 44 24 24          	mov    %eax,0x24(%rsp)
  401804:	8b 44 24 0c          	mov    0xc(%rsp),%eax
  401808:	69 c0 ab b4 00 00    	imul   $0xb4ab,%eax,%eax
  40180e:	89 44 24 0c          	mov    %eax,0xc(%rsp)
  401812:	8b 44 24 14          	mov    0x14(%rsp),%eax
  401816:	69 c0 ab b0 00 00    	imul   $0xb0ab,%eax,%eax
  40181c:	89 44 24 14          	mov    %eax,0x14(%rsp)
  401820:	8b 44 24 1c          	mov    0x1c(%rsp),%eax
  401824:	69 c0 4d b4 00 00    	imul   $0xb44d,%eax,%eax
  40182a:	89 44 24 1c          	mov    %eax,0x1c(%rsp)
  40182e:	8b 44 24 04          	mov    0x4(%rsp),%eax
  401832:	69 c0 f5 d7 00 00    	imul   $0xd7f5,%eax,%eax
  401838:	89 44 24 04          	mov    %eax,0x4(%rsp)
  40183c:	8b 04 24             	mov    (%rsp),%eax
  40183f:	69 c0 e1 4c 00 00    	imul   $0x4ce1,%eax,%eax
  401845:	89 04 24             	mov    %eax,(%rsp)
  401848:	8b 44 24 0c          	mov    0xc(%rsp),%eax
  40184c:	69 c0 4c 36 00 00    	imul   $0x364c,%eax,%eax
  401852:	89 44 24 0c          	mov    %eax,0xc(%rsp)
  401856:	8b 44 24 1c          	mov    0x1c(%rsp),%eax
  40185a:	69 c0 19 d8 00 00    	imul   $0xd819,%eax,%eax
  401860:	89 44 24 1c          	mov    %eax,0x1c(%rsp)
  401864:	8b 44 24 18          	mov    0x18(%rsp),%eax
  401868:	69 c0 ea f9 00 00    	imul   $0xf9ea,%eax,%eax
  40186e:	89 44 24 18          	mov    %eax,0x18(%rsp)
  401872:	8b 44 24 10          	mov    0x10(%rsp),%eax
  401876:	69 c0 fe 3a 00 00    	imul   $0x3afe,%eax,%eax
  40187c:	89 44 24 10          	mov    %eax,0x10(%rsp)
  401880:	8b 44 24 08          	mov    0x8(%rsp),%eax
  401884:	69 c0 8c 40 00 00    	imul   $0x408c,%eax,%eax
  40188a:	89 44 24 08          	mov    %eax,0x8(%rsp)
  40188e:	8b 44 24 04          	mov    0x4(%rsp),%eax
  401892:	69 c0 c6 f2 00 00    	imul   $0xf2c6,%eax,%eax
  401898:	89 44 24 04          	mov    %eax,0x4(%rsp)
  40189c:	ba 00 00 00 00       	mov    $0x0,%edx
  4018a1:	b8 00 00 00 00       	mov    $0x0,%eax
  4018a6:	eb 0a                	jmp    4018b2 <scramble+0x573>
  4018a8:	89 d1                	mov    %edx,%ecx
  4018aa:	8b 0c 8c             	mov    (%rsp,%rcx,4),%ecx
  4018ad:	01 c8                	add    %ecx,%eax
  4018af:	83 c2 01             	add    $0x1,%edx
  4018b2:	83 fa 09             	cmp    $0x9,%edx
  4018b5:	76 f1                	jbe    4018a8 <scramble+0x569>
  4018b7:	48 8b 74 24 28       	mov    0x28(%rsp),%rsi
  4018bc:	64 48 33 34 25 28 00 	xor    %fs:0x28,%rsi
  4018c3:	00 00 
  4018c5:	75 05                	jne    4018cc <scramble+0x58d>
  4018c7:	48 83 c4 38          	add    $0x38,%rsp
  4018cb:	c3                   	retq   
  4018cc:	e8 0f f4 ff ff       	callq  400ce0 <__stack_chk_fail@plt>

00000000004018d1 <getbuf>:
  4018d1:	48 83 ec 38          	sub    $0x38,%rsp
  4018d5:	48 89 e7             	mov    %rsp,%rdi
  4018d8:	e8 7e 02 00 00       	callq  401b5b <Gets>
  4018dd:	b8 01 00 00 00       	mov    $0x1,%eax
  4018e2:	48 83 c4 38          	add    $0x38,%rsp
  4018e6:	c3                   	retq   

00000000004018e7 <touch1>:
  4018e7:	48 83 ec 08          	sub    $0x8,%rsp
  4018eb:	c7 05 07 3c 20 00 01 	movl   $0x1,0x203c07(%rip)        # 6054fc <vlevel>
  4018f2:	00 00 00 
  4018f5:	bf 4a 32 40 00       	mov    $0x40324a,%edi
  4018fa:	e8 c1 f3 ff ff       	callq  400cc0 <puts@plt>
  4018ff:	bf 01 00 00 00       	mov    $0x1,%edi
  401904:	e8 a7 04 00 00       	callq  401db0 <validate>
  401909:	bf 00 00 00 00       	mov    $0x0,%edi
  40190e:	e8 1d f5 ff ff       	callq  400e30 <exit@plt>

0000000000401913 <touch2>:
  401913:	48 83 ec 08          	sub    $0x8,%rsp
  401917:	89 fa                	mov    %edi,%edx
  401919:	c7 05 d9 3b 20 00 02 	movl   $0x2,0x203bd9(%rip)        # 6054fc <vlevel>
  401920:	00 00 00 
  401923:	39 3d db 3b 20 00    	cmp    %edi,0x203bdb(%rip)        # 605504 <cookie>
  401929:	74 28                	je     401953 <touch2+0x40>
  40192b:	be 98 32 40 00       	mov    $0x403298,%esi
  401930:	bf 01 00 00 00       	mov    $0x1,%edi
  401935:	b8 00 00 00 00       	mov    $0x0,%eax
  40193a:	e8 a1 f4 ff ff       	callq  400de0 <__printf_chk@plt>
  40193f:	bf 02 00 00 00       	mov    $0x2,%edi
  401944:	e8 2c 05 00 00       	callq  401e75 <fail>
  401949:	bf 00 00 00 00       	mov    $0x0,%edi
  40194e:	e8 dd f4 ff ff       	callq  400e30 <exit@plt>
  401953:	be 70 32 40 00       	mov    $0x403270,%esi
  401958:	bf 01 00 00 00       	mov    $0x1,%edi
  40195d:	b8 00 00 00 00       	mov    $0x0,%eax
  401962:	e8 79 f4 ff ff       	callq  400de0 <__printf_chk@plt>
  401967:	bf 02 00 00 00       	mov    $0x2,%edi
  40196c:	e8 3f 04 00 00       	callq  401db0 <validate>
  401971:	eb d6                	jmp    401949 <touch2+0x36>

0000000000401973 <hexmatch>:
  401973:	41 54                	push   %r12
  401975:	55                   	push   %rbp
  401976:	53                   	push   %rbx
  401977:	48 83 c4 80          	add    $0xffffffffffffff80,%rsp
  40197b:	89 fd                	mov    %edi,%ebp
  40197d:	48 89 f3             	mov    %rsi,%rbx
  401980:	64 48 8b 04 25 28 00 	mov    %fs:0x28,%rax
  401987:	00 00 
  401989:	48 89 44 24 78       	mov    %rax,0x78(%rsp)
  40198e:	31 c0                	xor    %eax,%eax
  401990:	e8 0b f4 ff ff       	callq  400da0 <random@plt>
  401995:	48 89 c1             	mov    %rax,%rcx
  401998:	48 ba 0b d7 a3 70 3d 	movabs $0xa3d70a3d70a3d70b,%rdx
  40199f:	0a d7 a3 
  4019a2:	48 f7 ea             	imul   %rdx
  4019a5:	48 01 ca             	add    %rcx,%rdx
  4019a8:	48 c1 fa 06          	sar    $0x6,%rdx
  4019ac:	48 89 c8             	mov    %rcx,%rax
  4019af:	48 c1 f8 3f          	sar    $0x3f,%rax
  4019b3:	48 29 c2             	sub    %rax,%rdx
  4019b6:	48 8d 04 92          	lea    (%rdx,%rdx,4),%rax
  4019ba:	48 8d 14 80          	lea    (%rax,%rax,4),%rdx
  4019be:	48 8d 04 95 00 00 00 	lea    0x0(,%rdx,4),%rax
  4019c5:	00 
  4019c6:	48 29 c1             	sub    %rax,%rcx
  4019c9:	4c 8d 24 0c          	lea    (%rsp,%rcx,1),%r12
  4019cd:	41 89 e8             	mov    %ebp,%r8d
  4019d0:	b9 67 32 40 00       	mov    $0x403267,%ecx
  4019d5:	48 c7 c2 ff ff ff ff 	mov    $0xffffffffffffffff,%rdx
  4019dc:	be 01 00 00 00       	mov    $0x1,%esi
  4019e1:	4c 89 e7             	mov    %r12,%rdi
  4019e4:	b8 00 00 00 00       	mov    $0x0,%eax
  4019e9:	e8 72 f4 ff ff       	callq  400e60 <__sprintf_chk@plt>
  4019ee:	ba 09 00 00 00       	mov    $0x9,%edx
  4019f3:	4c 89 e6             	mov    %r12,%rsi
  4019f6:	48 89 df             	mov    %rbx,%rdi
  4019f9:	e8 a2 f2 ff ff       	callq  400ca0 <strncmp@plt>
  4019fe:	85 c0                	test   %eax,%eax
  401a00:	0f 94 c0             	sete   %al
  401a03:	48 8b 5c 24 78       	mov    0x78(%rsp),%rbx
  401a08:	64 48 33 1c 25 28 00 	xor    %fs:0x28,%rbx
  401a0f:	00 00 
  401a11:	75 0c                	jne    401a1f <hexmatch+0xac>
  401a13:	0f b6 c0             	movzbl %al,%eax
  401a16:	48 83 ec 80          	sub    $0xffffffffffffff80,%rsp
  401a1a:	5b                   	pop    %rbx
  401a1b:	5d                   	pop    %rbp
  401a1c:	41 5c                	pop    %r12
  401a1e:	c3                   	retq   
  401a1f:	e8 bc f2 ff ff       	callq  400ce0 <__stack_chk_fail@plt>

0000000000401a24 <touch3>:
  401a24:	53                   	push   %rbx
  401a25:	48 89 fb             	mov    %rdi,%rbx
  401a28:	c7 05 ca 3a 20 00 03 	movl   $0x3,0x203aca(%rip)        # 6054fc <vlevel>
  401a2f:	00 00 00 
  401a32:	48 89 fe             	mov    %rdi,%rsi
  401a35:	8b 3d c9 3a 20 00    	mov    0x203ac9(%rip),%edi        # 605504 <cookie>
  401a3b:	e8 33 ff ff ff       	callq  401973 <hexmatch>
  401a40:	85 c0                	test   %eax,%eax
  401a42:	74 2b                	je     401a6f <touch3+0x4b>
  401a44:	48 89 da             	mov    %rbx,%rdx
  401a47:	be c0 32 40 00       	mov    $0x4032c0,%esi
  401a4c:	bf 01 00 00 00       	mov    $0x1,%edi
  401a51:	b8 00 00 00 00       	mov    $0x0,%eax
  401a56:	e8 85 f3 ff ff       	callq  400de0 <__printf_chk@plt>
  401a5b:	bf 03 00 00 00       	mov    $0x3,%edi
  401a60:	e8 4b 03 00 00       	callq  401db0 <validate>
  401a65:	bf 00 00 00 00       	mov    $0x0,%edi
  401a6a:	e8 c1 f3 ff ff       	callq  400e30 <exit@plt>
  401a6f:	48 89 da             	mov    %rbx,%rdx
  401a72:	be e8 32 40 00       	mov    $0x4032e8,%esi
  401a77:	bf 01 00 00 00       	mov    $0x1,%edi
  401a7c:	b8 00 00 00 00       	mov    $0x0,%eax
  401a81:	e8 5a f3 ff ff       	callq  400de0 <__printf_chk@plt>
  401a86:	bf 03 00 00 00       	mov    $0x3,%edi
  401a8b:	e8 e5 03 00 00       	callq  401e75 <fail>
  401a90:	eb d3                	jmp    401a65 <touch3+0x41>

0000000000401a92 <test>:
  401a92:	48 83 ec 08          	sub    $0x8,%rsp
  401a96:	b8 00 00 00 00       	mov    $0x0,%eax
  401a9b:	e8 31 fe ff ff       	callq  4018d1 <getbuf>
  401aa0:	89 c2                	mov    %eax,%edx
  401aa2:	be 10 33 40 00       	mov    $0x403310,%esi
  401aa7:	bf 01 00 00 00       	mov    $0x1,%edi
  401aac:	b8 00 00 00 00       	mov    $0x0,%eax
  401ab1:	e8 2a f3 ff ff       	callq  400de0 <__printf_chk@plt>
  401ab6:	48 83 c4 08          	add    $0x8,%rsp
  401aba:	c3                   	retq   

0000000000401abb <save_char>:
  401abb:	8b 05 63 46 20 00    	mov    0x204663(%rip),%eax        # 606124 <gets_cnt>
  401ac1:	3d ff 03 00 00       	cmp    $0x3ff,%eax
  401ac6:	7f 49                	jg     401b11 <save_char+0x56>
  401ac8:	89 f9                	mov    %edi,%ecx
  401aca:	c0 e9 04             	shr    $0x4,%cl
  401acd:	8d 14 40             	lea    (%rax,%rax,2),%edx
  401ad0:	83 e1 0f             	and    $0xf,%ecx
  401ad3:	0f b6 b1 30 36 40 00 	movzbl 0x403630(%rcx),%esi
  401ada:	48 63 ca             	movslq %edx,%rcx
  401add:	40 88 b1 20 55 60 00 	mov    %sil,0x605520(%rcx)
  401ae4:	8d 4a 01             	lea    0x1(%rdx),%ecx
  401ae7:	83 e7 0f             	and    $0xf,%edi
  401aea:	0f b6 b7 30 36 40 00 	movzbl 0x403630(%rdi),%esi
  401af1:	48 63 c9             	movslq %ecx,%rcx
  401af4:	40 88 b1 20 55 60 00 	mov    %sil,0x605520(%rcx)
  401afb:	83 c2 02             	add    $0x2,%edx
  401afe:	48 63 d2             	movslq %edx,%rdx
  401b01:	c6 82 20 55 60 00 20 	movb   $0x20,0x605520(%rdx)
  401b08:	83 c0 01             	add    $0x1,%eax
  401b0b:	89 05 13 46 20 00    	mov    %eax,0x204613(%rip)        # 606124 <gets_cnt>
  401b11:	f3 c3                	repz retq 

0000000000401b13 <save_term>:
  401b13:	8b 05 0b 46 20 00    	mov    0x20460b(%rip),%eax        # 606124 <gets_cnt>
  401b19:	8d 04 40             	lea    (%rax,%rax,2),%eax
  401b1c:	48 98                	cltq   
  401b1e:	c6 80 20 55 60 00 00 	movb   $0x0,0x605520(%rax)
  401b25:	c3                   	retq   

0000000000401b26 <check_fail>:
  401b26:	48 83 ec 08          	sub    $0x8,%rsp
  401b2a:	0f be 15 f7 45 20 00 	movsbl 0x2045f7(%rip),%edx        # 606128 <target_prefix>
  401b31:	41 b8 20 55 60 00    	mov    $0x605520,%r8d
  401b37:	8b 0d bb 39 20 00    	mov    0x2039bb(%rip),%ecx        # 6054f8 <check_level>
  401b3d:	be 33 33 40 00       	mov    $0x403333,%esi
  401b42:	bf 01 00 00 00       	mov    $0x1,%edi
  401b47:	b8 00 00 00 00       	mov    $0x0,%eax
  401b4c:	e8 8f f2 ff ff       	callq  400de0 <__printf_chk@plt>
  401b51:	bf 01 00 00 00       	mov    $0x1,%edi
  401b56:	e8 d5 f2 ff ff       	callq  400e30 <exit@plt>

0000000000401b5b <Gets>:
  401b5b:	41 54                	push   %r12
  401b5d:	55                   	push   %rbp
  401b5e:	53                   	push   %rbx
  401b5f:	49 89 fc             	mov    %rdi,%r12
  401b62:	c7 05 b8 45 20 00 00 	movl   $0x0,0x2045b8(%rip)        # 606124 <gets_cnt>
  401b69:	00 00 00 
  401b6c:	48 89 fb             	mov    %rdi,%rbx
  401b6f:	eb 11                	jmp    401b82 <Gets+0x27>
  401b71:	48 8d 6b 01          	lea    0x1(%rbx),%rbp
  401b75:	88 03                	mov    %al,(%rbx)
  401b77:	0f b6 f8             	movzbl %al,%edi
  401b7a:	e8 3c ff ff ff       	callq  401abb <save_char>
  401b7f:	48 89 eb             	mov    %rbp,%rbx
  401b82:	48 8b 3d 67 39 20 00 	mov    0x203967(%rip),%rdi        # 6054f0 <infile>
  401b89:	e8 22 f2 ff ff       	callq  400db0 <_IO_getc@plt>
  401b8e:	83 f8 ff             	cmp    $0xffffffff,%eax
  401b91:	74 05                	je     401b98 <Gets+0x3d>
  401b93:	83 f8 0a             	cmp    $0xa,%eax
  401b96:	75 d9                	jne    401b71 <Gets+0x16>
  401b98:	c6 03 00             	movb   $0x0,(%rbx)
  401b9b:	b8 00 00 00 00       	mov    $0x0,%eax
  401ba0:	e8 6e ff ff ff       	callq  401b13 <save_term>
  401ba5:	4c 89 e0             	mov    %r12,%rax
  401ba8:	5b                   	pop    %rbx
  401ba9:	5d                   	pop    %rbp
  401baa:	41 5c                	pop    %r12
  401bac:	c3                   	retq   

0000000000401bad <notify_server>:
  401bad:	55                   	push   %rbp
  401bae:	53                   	push   %rbx
  401baf:	48 81 ec 18 40 00 00 	sub    $0x4018,%rsp
  401bb6:	64 48 8b 04 25 28 00 	mov    %fs:0x28,%rax
  401bbd:	00 00 
  401bbf:	48 89 84 24 08 40 00 	mov    %rax,0x4008(%rsp)
  401bc6:	00 
  401bc7:	31 c0                	xor    %eax,%eax
  401bc9:	83 3d 38 39 20 00 00 	cmpl   $0x0,0x203938(%rip)        # 605508 <is_checker>
  401bd0:	0f 85 c9 00 00 00    	jne    401c9f <notify_server+0xf2>
  401bd6:	89 fb                	mov    %edi,%ebx
  401bd8:	8b 05 46 45 20 00    	mov    0x204546(%rip),%eax        # 606124 <gets_cnt>
  401bde:	83 c0 64             	add    $0x64,%eax
  401be1:	3d 00 20 00 00       	cmp    $0x2000,%eax
  401be6:	0f 8f d4 00 00 00    	jg     401cc0 <notify_server+0x113>
  401bec:	0f be 05 35 45 20 00 	movsbl 0x204535(%rip),%eax        # 606128 <target_prefix>
  401bf3:	83 3d 8e 38 20 00 00 	cmpl   $0x0,0x20388e(%rip)        # 605488 <notify>
  401bfa:	0f 84 de 00 00 00    	je     401cde <notify_server+0x131>
  401c00:	8b 15 fa 38 20 00    	mov    0x2038fa(%rip),%edx        # 605500 <authkey>
  401c06:	85 db                	test   %ebx,%ebx
  401c08:	0f 84 da 00 00 00    	je     401ce8 <notify_server+0x13b>
  401c0e:	bd 49 33 40 00       	mov    $0x403349,%ebp
  401c13:	68 20 55 60 00       	pushq  $0x605520
  401c18:	56                   	push   %rsi
  401c19:	50                   	push   %rax
  401c1a:	52                   	push   %rdx
  401c1b:	49 89 e9             	mov    %rbp,%r9
  401c1e:	44 8b 05 23 35 20 00 	mov    0x203523(%rip),%r8d        # 605148 <target_id>
  401c25:	b9 53 33 40 00       	mov    $0x403353,%ecx
  401c2a:	ba 00 20 00 00       	mov    $0x2000,%edx
  401c2f:	be 01 00 00 00       	mov    $0x1,%esi
  401c34:	48 8d 7c 24 20       	lea    0x20(%rsp),%rdi
  401c39:	b8 00 00 00 00       	mov    $0x0,%eax
  401c3e:	e8 1d f2 ff ff       	callq  400e60 <__sprintf_chk@plt>
  401c43:	48 83 c4 20          	add    $0x20,%rsp
  401c47:	83 3d 3a 38 20 00 00 	cmpl   $0x0,0x20383a(%rip)        # 605488 <notify>
  401c4e:	0f 84 d3 00 00 00    	je     401d27 <notify_server+0x17a>
  401c54:	85 db                	test   %ebx,%ebx
  401c56:	0f 84 bc 00 00 00    	je     401d18 <notify_server+0x16b>
  401c5c:	4c 8d 8c 24 00 20 00 	lea    0x2000(%rsp),%r9
  401c63:	00 
  401c64:	41 b8 00 00 00 00    	mov    $0x0,%r8d
  401c6a:	48 89 e1             	mov    %rsp,%rcx
  401c6d:	48 8b 15 dc 34 20 00 	mov    0x2034dc(%rip),%rdx        # 605150 <lab>
  401c74:	48 8b 35 dd 34 20 00 	mov    0x2034dd(%rip),%rsi        # 605158 <course>
  401c7b:	48 8b 3d be 34 20 00 	mov    0x2034be(%rip),%rdi        # 605140 <user_id>
  401c82:	e8 31 11 00 00       	callq  402db8 <driver_post>
  401c87:	85 c0                	test   %eax,%eax
  401c89:	78 67                	js     401cf2 <notify_server+0x145>
  401c8b:	bf 98 34 40 00       	mov    $0x403498,%edi
  401c90:	e8 2b f0 ff ff       	callq  400cc0 <puts@plt>
  401c95:	bf 7b 33 40 00       	mov    $0x40337b,%edi
  401c9a:	e8 21 f0 ff ff       	callq  400cc0 <puts@plt>
  401c9f:	48 8b 84 24 08 40 00 	mov    0x4008(%rsp),%rax
  401ca6:	00 
  401ca7:	64 48 33 04 25 28 00 	xor    %fs:0x28,%rax
  401cae:	00 00 
  401cb0:	0f 85 f5 00 00 00    	jne    401dab <notify_server+0x1fe>
  401cb6:	48 81 c4 18 40 00 00 	add    $0x4018,%rsp
  401cbd:	5b                   	pop    %rbx
  401cbe:	5d                   	pop    %rbp
  401cbf:	c3                   	retq   
  401cc0:	be 68 34 40 00       	mov    $0x403468,%esi
  401cc5:	bf 01 00 00 00       	mov    $0x1,%edi
  401cca:	b8 00 00 00 00       	mov    $0x0,%eax
  401ccf:	e8 0c f1 ff ff       	callq  400de0 <__printf_chk@plt>
  401cd4:	bf 01 00 00 00       	mov    $0x1,%edi
  401cd9:	e8 52 f1 ff ff       	callq  400e30 <exit@plt>
  401cde:	ba ff ff ff ff       	mov    $0xffffffff,%edx
  401ce3:	e9 1e ff ff ff       	jmpq   401c06 <notify_server+0x59>
  401ce8:	bd 4e 33 40 00       	mov    $0x40334e,%ebp
  401ced:	e9 21 ff ff ff       	jmpq   401c13 <notify_server+0x66>
  401cf2:	48 8d 94 24 00 20 00 	lea    0x2000(%rsp),%rdx
  401cf9:	00 
  401cfa:	be 6f 33 40 00       	mov    $0x40336f,%esi
  401cff:	bf 01 00 00 00       	mov    $0x1,%edi
  401d04:	b8 00 00 00 00       	mov    $0x0,%eax
  401d09:	e8 d2 f0 ff ff       	callq  400de0 <__printf_chk@plt>
  401d0e:	bf 01 00 00 00       	mov    $0x1,%edi
  401d13:	e8 18 f1 ff ff       	callq  400e30 <exit@plt>
  401d18:	bf 85 33 40 00       	mov    $0x403385,%edi
  401d1d:	e8 9e ef ff ff       	callq  400cc0 <puts@plt>
  401d22:	e9 78 ff ff ff       	jmpq   401c9f <notify_server+0xf2>
  401d27:	48 89 ea             	mov    %rbp,%rdx
  401d2a:	be d0 34 40 00       	mov    $0x4034d0,%esi
  401d2f:	bf 01 00 00 00       	mov    $0x1,%edi
  401d34:	b8 00 00 00 00       	mov    $0x0,%eax
  401d39:	e8 a2 f0 ff ff       	callq  400de0 <__printf_chk@plt>
  401d3e:	48 8b 15 fb 33 20 00 	mov    0x2033fb(%rip),%rdx        # 605140 <user_id>
  401d45:	be 8c 33 40 00       	mov    $0x40338c,%esi
  401d4a:	bf 01 00 00 00       	mov    $0x1,%edi
  401d4f:	b8 00 00 00 00       	mov    $0x0,%eax
  401d54:	e8 87 f0 ff ff       	callq  400de0 <__printf_chk@plt>
  401d59:	48 8b 15 f8 33 20 00 	mov    0x2033f8(%rip),%rdx        # 605158 <course>
  401d60:	be 99 33 40 00       	mov    $0x403399,%esi
  401d65:	bf 01 00 00 00       	mov    $0x1,%edi
  401d6a:	b8 00 00 00 00       	mov    $0x0,%eax
  401d6f:	e8 6c f0 ff ff       	callq  400de0 <__printf_chk@plt>
  401d74:	48 8b 15 d5 33 20 00 	mov    0x2033d5(%rip),%rdx        # 605150 <lab>
  401d7b:	be a5 33 40 00       	mov    $0x4033a5,%esi
  401d80:	bf 01 00 00 00       	mov    $0x1,%edi
  401d85:	b8 00 00 00 00       	mov    $0x0,%eax
  401d8a:	e8 51 f0 ff ff       	callq  400de0 <__printf_chk@plt>
  401d8f:	48 89 e2             	mov    %rsp,%rdx
  401d92:	be ae 33 40 00       	mov    $0x4033ae,%esi
  401d97:	bf 01 00 00 00       	mov    $0x1,%edi
  401d9c:	b8 00 00 00 00       	mov    $0x0,%eax
  401da1:	e8 3a f0 ff ff       	callq  400de0 <__printf_chk@plt>
  401da6:	e9 f4 fe ff ff       	jmpq   401c9f <notify_server+0xf2>
  401dab:	e8 30 ef ff ff       	callq  400ce0 <__stack_chk_fail@plt>

0000000000401db0 <validate>:
  401db0:	53                   	push   %rbx
  401db1:	89 fb                	mov    %edi,%ebx
  401db3:	83 3d 4e 37 20 00 00 	cmpl   $0x0,0x20374e(%rip)        # 605508 <is_checker>
  401dba:	74 6b                	je     401e27 <validate+0x77>
  401dbc:	39 3d 3a 37 20 00    	cmp    %edi,0x20373a(%rip)        # 6054fc <vlevel>
  401dc2:	75 2f                	jne    401df3 <validate+0x43>
  401dc4:	8b 15 2e 37 20 00    	mov    0x20372e(%rip),%edx        # 6054f8 <check_level>
  401dca:	39 fa                	cmp    %edi,%edx
  401dcc:	75 39                	jne    401e07 <validate+0x57>
  401dce:	0f be 15 53 43 20 00 	movsbl 0x204353(%rip),%edx        # 606128 <target_prefix>
  401dd5:	41 b8 20 55 60 00    	mov    $0x605520,%r8d
  401ddb:	89 f9                	mov    %edi,%ecx
  401ddd:	be d8 33 40 00       	mov    $0x4033d8,%esi
  401de2:	bf 01 00 00 00       	mov    $0x1,%edi
  401de7:	b8 00 00 00 00       	mov    $0x0,%eax
  401dec:	e8 ef ef ff ff       	callq  400de0 <__printf_chk@plt>
  401df1:	5b                   	pop    %rbx
  401df2:	c3                   	retq   
  401df3:	bf ba 33 40 00       	mov    $0x4033ba,%edi
  401df8:	e8 c3 ee ff ff       	callq  400cc0 <puts@plt>
  401dfd:	b8 00 00 00 00       	mov    $0x0,%eax
  401e02:	e8 1f fd ff ff       	callq  401b26 <check_fail>
  401e07:	89 f9                	mov    %edi,%ecx
  401e09:	be f8 34 40 00       	mov    $0x4034f8,%esi
  401e0e:	bf 01 00 00 00       	mov    $0x1,%edi
  401e13:	b8 00 00 00 00       	mov    $0x0,%eax
  401e18:	e8 c3 ef ff ff       	callq  400de0 <__printf_chk@plt>
  401e1d:	b8 00 00 00 00       	mov    $0x0,%eax
  401e22:	e8 ff fc ff ff       	callq  401b26 <check_fail>
  401e27:	39 3d cf 36 20 00    	cmp    %edi,0x2036cf(%rip)        # 6054fc <vlevel>
  401e2d:	74 18                	je     401e47 <validate+0x97>
  401e2f:	bf ba 33 40 00       	mov    $0x4033ba,%edi
  401e34:	e8 87 ee ff ff       	callq  400cc0 <puts@plt>
  401e39:	89 de                	mov    %ebx,%esi
  401e3b:	bf 00 00 00 00       	mov    $0x0,%edi
  401e40:	e8 68 fd ff ff       	callq  401bad <notify_server>
  401e45:	eb aa                	jmp    401df1 <validate+0x41>
  401e47:	0f be 0d da 42 20 00 	movsbl 0x2042da(%rip),%ecx        # 606128 <target_prefix>
  401e4e:	89 fa                	mov    %edi,%edx
  401e50:	be 20 35 40 00       	mov    $0x403520,%esi
  401e55:	bf 01 00 00 00       	mov    $0x1,%edi
  401e5a:	b8 00 00 00 00       	mov    $0x0,%eax
  401e5f:	e8 7c ef ff ff       	callq  400de0 <__printf_chk@plt>
  401e64:	89 de                	mov    %ebx,%esi
  401e66:	bf 01 00 00 00       	mov    $0x1,%edi
  401e6b:	e8 3d fd ff ff       	callq  401bad <notify_server>
  401e70:	e9 7c ff ff ff       	jmpq   401df1 <validate+0x41>

0000000000401e75 <fail>:
  401e75:	48 83 ec 08          	sub    $0x8,%rsp
  401e79:	83 3d 88 36 20 00 00 	cmpl   $0x0,0x203688(%rip)        # 605508 <is_checker>
  401e80:	75 11                	jne    401e93 <fail+0x1e>
  401e82:	89 fe                	mov    %edi,%esi
  401e84:	bf 00 00 00 00       	mov    $0x0,%edi
  401e89:	e8 1f fd ff ff       	callq  401bad <notify_server>
  401e8e:	48 83 c4 08          	add    $0x8,%rsp
  401e92:	c3                   	retq   
  401e93:	b8 00 00 00 00       	mov    $0x0,%eax
  401e98:	e8 89 fc ff ff       	callq  401b26 <check_fail>

0000000000401e9d <bushandler>:
  401e9d:	48 83 ec 08          	sub    $0x8,%rsp
  401ea1:	83 3d 60 36 20 00 00 	cmpl   $0x0,0x203660(%rip)        # 605508 <is_checker>
  401ea8:	74 14                	je     401ebe <bushandler+0x21>
  401eaa:	bf ed 33 40 00       	mov    $0x4033ed,%edi
  401eaf:	e8 0c ee ff ff       	callq  400cc0 <puts@plt>
  401eb4:	b8 00 00 00 00       	mov    $0x0,%eax
  401eb9:	e8 68 fc ff ff       	callq  401b26 <check_fail>
  401ebe:	bf 58 35 40 00       	mov    $0x403558,%edi
  401ec3:	e8 f8 ed ff ff       	callq  400cc0 <puts@plt>
  401ec8:	bf f7 33 40 00       	mov    $0x4033f7,%edi
  401ecd:	e8 ee ed ff ff       	callq  400cc0 <puts@plt>
  401ed2:	be 00 00 00 00       	mov    $0x0,%esi
  401ed7:	bf 00 00 00 00       	mov    $0x0,%edi
  401edc:	e8 cc fc ff ff       	callq  401bad <notify_server>
  401ee1:	bf 01 00 00 00       	mov    $0x1,%edi
  401ee6:	e8 45 ef ff ff       	callq  400e30 <exit@plt>

0000000000401eeb <seghandler>:
  401eeb:	48 83 ec 08          	sub    $0x8,%rsp
  401eef:	83 3d 12 36 20 00 00 	cmpl   $0x0,0x203612(%rip)        # 605508 <is_checker>
  401ef6:	74 14                	je     401f0c <seghandler+0x21>
  401ef8:	bf 0d 34 40 00       	mov    $0x40340d,%edi
  401efd:	e8 be ed ff ff       	callq  400cc0 <puts@plt>
  401f02:	b8 00 00 00 00       	mov    $0x0,%eax
  401f07:	e8 1a fc ff ff       	callq  401b26 <check_fail>
  401f0c:	bf 78 35 40 00       	mov    $0x403578,%edi
  401f11:	e8 aa ed ff ff       	callq  400cc0 <puts@plt>
  401f16:	bf f7 33 40 00       	mov    $0x4033f7,%edi
  401f1b:	e8 a0 ed ff ff       	callq  400cc0 <puts@plt>
  401f20:	be 00 00 00 00       	mov    $0x0,%esi
  401f25:	bf 00 00 00 00       	mov    $0x0,%edi
  401f2a:	e8 7e fc ff ff       	callq  401bad <notify_server>
  401f2f:	bf 01 00 00 00       	mov    $0x1,%edi
  401f34:	e8 f7 ee ff ff       	callq  400e30 <exit@plt>

0000000000401f39 <illegalhandler>:
  401f39:	48 83 ec 08          	sub    $0x8,%rsp
  401f3d:	83 3d c4 35 20 00 00 	cmpl   $0x0,0x2035c4(%rip)        # 605508 <is_checker>
  401f44:	74 14                	je     401f5a <illegalhandler+0x21>
  401f46:	bf 20 34 40 00       	mov    $0x403420,%edi
  401f4b:	e8 70 ed ff ff       	callq  400cc0 <puts@plt>
  401f50:	b8 00 00 00 00       	mov    $0x0,%eax
  401f55:	e8 cc fb ff ff       	callq  401b26 <check_fail>
  401f5a:	bf a0 35 40 00       	mov    $0x4035a0,%edi
  401f5f:	e8 5c ed ff ff       	callq  400cc0 <puts@plt>
  401f64:	bf f7 33 40 00       	mov    $0x4033f7,%edi
  401f69:	e8 52 ed ff ff       	callq  400cc0 <puts@plt>
  401f6e:	be 00 00 00 00       	mov    $0x0,%esi
  401f73:	bf 00 00 00 00       	mov    $0x0,%edi
  401f78:	e8 30 fc ff ff       	callq  401bad <notify_server>
  401f7d:	bf 01 00 00 00       	mov    $0x1,%edi
  401f82:	e8 a9 ee ff ff       	callq  400e30 <exit@plt>

0000000000401f87 <sigalrmhandler>:
  401f87:	48 83 ec 08          	sub    $0x8,%rsp
  401f8b:	83 3d 76 35 20 00 00 	cmpl   $0x0,0x203576(%rip)        # 605508 <is_checker>
  401f92:	74 14                	je     401fa8 <sigalrmhandler+0x21>
  401f94:	bf 34 34 40 00       	mov    $0x403434,%edi
  401f99:	e8 22 ed ff ff       	callq  400cc0 <puts@plt>
  401f9e:	b8 00 00 00 00       	mov    $0x0,%eax
  401fa3:	e8 7e fb ff ff       	callq  401b26 <check_fail>
  401fa8:	ba 05 00 00 00       	mov    $0x5,%edx
  401fad:	be d0 35 40 00       	mov    $0x4035d0,%esi
  401fb2:	bf 01 00 00 00       	mov    $0x1,%edi
  401fb7:	b8 00 00 00 00       	mov    $0x0,%eax
  401fbc:	e8 1f ee ff ff       	callq  400de0 <__printf_chk@plt>
  401fc1:	be 00 00 00 00       	mov    $0x0,%esi
  401fc6:	bf 00 00 00 00       	mov    $0x0,%edi
  401fcb:	e8 dd fb ff ff       	callq  401bad <notify_server>
  401fd0:	bf 01 00 00 00       	mov    $0x1,%edi
  401fd5:	e8 56 ee ff ff       	callq  400e30 <exit@plt>

0000000000401fda <launch>:
  401fda:	55                   	push   %rbp
  401fdb:	48 89 e5             	mov    %rsp,%rbp
  401fde:	48 83 ec 10          	sub    $0x10,%rsp
  401fe2:	48 89 fa             	mov    %rdi,%rdx
  401fe5:	64 48 8b 04 25 28 00 	mov    %fs:0x28,%rax
  401fec:	00 00 
  401fee:	48 89 45 f8          	mov    %rax,-0x8(%rbp)
  401ff2:	31 c0                	xor    %eax,%eax
  401ff4:	48 8d 47 1e          	lea    0x1e(%rdi),%rax
  401ff8:	48 83 e0 f0          	and    $0xfffffffffffffff0,%rax
  401ffc:	48 29 c4             	sub    %rax,%rsp
  401fff:	48 8d 7c 24 0f       	lea    0xf(%rsp),%rdi
  402004:	48 83 e7 f0          	and    $0xfffffffffffffff0,%rdi
  402008:	be f4 00 00 00       	mov    $0xf4,%esi
  40200d:	e8 ee ec ff ff       	callq  400d00 <memset@plt>
  402012:	48 8b 05 87 34 20 00 	mov    0x203487(%rip),%rax        # 6054a0 <stdin@@GLIBC_2.2.5>
  402019:	48 39 05 d0 34 20 00 	cmp    %rax,0x2034d0(%rip)        # 6054f0 <infile>
  402020:	74 38                	je     40205a <launch+0x80>
  402022:	c7 05 d0 34 20 00 00 	movl   $0x0,0x2034d0(%rip)        # 6054fc <vlevel>
  402029:	00 00 00 
  40202c:	b8 00 00 00 00       	mov    $0x0,%eax
  402031:	e8 5c fa ff ff       	callq  401a92 <test>
  402036:	83 3d cb 34 20 00 00 	cmpl   $0x0,0x2034cb(%rip)        # 605508 <is_checker>
  40203d:	75 31                	jne    402070 <launch+0x96>
  40203f:	bf 54 34 40 00       	mov    $0x403454,%edi
  402044:	e8 77 ec ff ff       	callq  400cc0 <puts@plt>
  402049:	48 8b 45 f8          	mov    -0x8(%rbp),%rax
  40204d:	64 48 33 04 25 28 00 	xor    %fs:0x28,%rax
  402054:	00 00 
  402056:	75 2c                	jne    402084 <launch+0xaa>
  402058:	c9                   	leaveq 
  402059:	c3                   	retq   
  40205a:	be 3c 34 40 00       	mov    $0x40343c,%esi
  40205f:	bf 01 00 00 00       	mov    $0x1,%edi
  402064:	b8 00 00 00 00       	mov    $0x0,%eax
  402069:	e8 72 ed ff ff       	callq  400de0 <__printf_chk@plt>
  40206e:	eb b2                	jmp    402022 <launch+0x48>
  402070:	bf 49 34 40 00       	mov    $0x403449,%edi
  402075:	e8 46 ec ff ff       	callq  400cc0 <puts@plt>
  40207a:	b8 00 00 00 00       	mov    $0x0,%eax
  40207f:	e8 a2 fa ff ff       	callq  401b26 <check_fail>
  402084:	e8 57 ec ff ff       	callq  400ce0 <__stack_chk_fail@plt>

0000000000402089 <stable_launch>:
  402089:	53                   	push   %rbx
  40208a:	48 89 3d 57 34 20 00 	mov    %rdi,0x203457(%rip)        # 6054e8 <global_offset>
  402091:	41 b9 00 00 00 00    	mov    $0x0,%r9d
  402097:	41 b8 00 00 00 00    	mov    $0x0,%r8d
  40209d:	b9 32 01 00 00       	mov    $0x132,%ecx
  4020a2:	ba 07 00 00 00       	mov    $0x7,%edx
  4020a7:	be 00 00 10 00       	mov    $0x100000,%esi
  4020ac:	bf 00 60 58 55       	mov    $0x55586000,%edi
  4020b1:	e8 3a ec ff ff       	callq  400cf0 <mmap@plt>
  4020b6:	48 89 c3             	mov    %rax,%rbx
  4020b9:	48 3d 00 60 58 55    	cmp    $0x55586000,%rax
  4020bf:	75 43                	jne    402104 <stable_launch+0x7b>
  4020c1:	48 8d 90 f8 ff 0f 00 	lea    0xffff8(%rax),%rdx
  4020c8:	48 89 15 61 40 20 00 	mov    %rdx,0x204061(%rip)        # 606130 <stack_top>
  4020cf:	48 89 e0             	mov    %rsp,%rax
  4020d2:	48 89 d4             	mov    %rdx,%rsp
  4020d5:	48 89 c2             	mov    %rax,%rdx
  4020d8:	48 89 15 01 34 20 00 	mov    %rdx,0x203401(%rip)        # 6054e0 <global_save_stack>
  4020df:	48 8b 3d 02 34 20 00 	mov    0x203402(%rip),%rdi        # 6054e8 <global_offset>
  4020e6:	e8 ef fe ff ff       	callq  401fda <launch>
  4020eb:	48 8b 05 ee 33 20 00 	mov    0x2033ee(%rip),%rax        # 6054e0 <global_save_stack>
  4020f2:	48 89 c4             	mov    %rax,%rsp
  4020f5:	be 00 00 10 00       	mov    $0x100000,%esi
  4020fa:	48 89 df             	mov    %rbx,%rdi
  4020fd:	e8 ce ec ff ff       	callq  400dd0 <munmap@plt>
  402102:	5b                   	pop    %rbx
  402103:	c3                   	retq   
  402104:	be 00 00 10 00       	mov    $0x100000,%esi
  402109:	48 89 c7             	mov    %rax,%rdi
  40210c:	e8 bf ec ff ff       	callq  400dd0 <munmap@plt>
  402111:	b9 00 60 58 55       	mov    $0x55586000,%ecx
  402116:	ba 08 36 40 00       	mov    $0x403608,%edx
  40211b:	be 01 00 00 00       	mov    $0x1,%esi
  402120:	48 8b 3d 99 33 20 00 	mov    0x203399(%rip),%rdi        # 6054c0 <stderr@@GLIBC_2.2.5>
  402127:	b8 00 00 00 00       	mov    $0x0,%eax
  40212c:	e8 1f ed ff ff       	callq  400e50 <__fprintf_chk@plt>
  402131:	bf 01 00 00 00       	mov    $0x1,%edi
  402136:	e8 f5 ec ff ff       	callq  400e30 <exit@plt>

000000000040213b <rio_readinitb>:
  40213b:	89 37                	mov    %esi,(%rdi)
  40213d:	c7 47 04 00 00 00 00 	movl   $0x0,0x4(%rdi)
  402144:	48 8d 47 10          	lea    0x10(%rdi),%rax
  402148:	48 89 47 08          	mov    %rax,0x8(%rdi)
  40214c:	c3                   	retq   

000000000040214d <sigalrm_handler>:
  40214d:	48 83 ec 08          	sub    $0x8,%rsp
  402151:	b9 00 00 00 00       	mov    $0x0,%ecx
  402156:	ba 40 36 40 00       	mov    $0x403640,%edx
  40215b:	be 01 00 00 00       	mov    $0x1,%esi
  402160:	48 8b 3d 59 33 20 00 	mov    0x203359(%rip),%rdi        # 6054c0 <stderr@@GLIBC_2.2.5>
  402167:	b8 00 00 00 00       	mov    $0x0,%eax
  40216c:	e8 df ec ff ff       	callq  400e50 <__fprintf_chk@plt>
  402171:	bf 01 00 00 00       	mov    $0x1,%edi
  402176:	e8 b5 ec ff ff       	callq  400e30 <exit@plt>

000000000040217b <rio_writen>:
  40217b:	41 55                	push   %r13
  40217d:	41 54                	push   %r12
  40217f:	55                   	push   %rbp
  402180:	53                   	push   %rbx
  402181:	48 83 ec 08          	sub    $0x8,%rsp
  402185:	41 89 fc             	mov    %edi,%r12d
  402188:	48 89 f5             	mov    %rsi,%rbp
  40218b:	49 89 d5             	mov    %rdx,%r13
  40218e:	48 89 d3             	mov    %rdx,%rbx
  402191:	eb 06                	jmp    402199 <rio_writen+0x1e>
  402193:	48 29 c3             	sub    %rax,%rbx
  402196:	48 01 c5             	add    %rax,%rbp
  402199:	48 85 db             	test   %rbx,%rbx
  40219c:	74 24                	je     4021c2 <rio_writen+0x47>
  40219e:	48 89 da             	mov    %rbx,%rdx
  4021a1:	48 89 ee             	mov    %rbp,%rsi
  4021a4:	44 89 e7             	mov    %r12d,%edi
  4021a7:	e8 24 eb ff ff       	callq  400cd0 <write@plt>
  4021ac:	48 85 c0             	test   %rax,%rax
  4021af:	7f e2                	jg     402193 <rio_writen+0x18>
  4021b1:	e8 ca ea ff ff       	callq  400c80 <__errno_location@plt>
  4021b6:	83 38 04             	cmpl   $0x4,(%rax)
  4021b9:	75 15                	jne    4021d0 <rio_writen+0x55>
  4021bb:	b8 00 00 00 00       	mov    $0x0,%eax
  4021c0:	eb d1                	jmp    402193 <rio_writen+0x18>
  4021c2:	4c 89 e8             	mov    %r13,%rax
  4021c5:	48 83 c4 08          	add    $0x8,%rsp
  4021c9:	5b                   	pop    %rbx
  4021ca:	5d                   	pop    %rbp
  4021cb:	41 5c                	pop    %r12
  4021cd:	41 5d                	pop    %r13
  4021cf:	c3                   	retq   
  4021d0:	48 c7 c0 ff ff ff ff 	mov    $0xffffffffffffffff,%rax
  4021d7:	eb ec                	jmp    4021c5 <rio_writen+0x4a>

00000000004021d9 <rio_read>:
  4021d9:	41 55                	push   %r13
  4021db:	41 54                	push   %r12
  4021dd:	55                   	push   %rbp
  4021de:	53                   	push   %rbx
  4021df:	48 83 ec 08          	sub    $0x8,%rsp
  4021e3:	48 89 fb             	mov    %rdi,%rbx
  4021e6:	49 89 f5             	mov    %rsi,%r13
  4021e9:	49 89 d4             	mov    %rdx,%r12
  4021ec:	eb 0a                	jmp    4021f8 <rio_read+0x1f>
  4021ee:	e8 8d ea ff ff       	callq  400c80 <__errno_location@plt>
  4021f3:	83 38 04             	cmpl   $0x4,(%rax)
  4021f6:	75 5c                	jne    402254 <rio_read+0x7b>
  4021f8:	8b 6b 04             	mov    0x4(%rbx),%ebp
  4021fb:	85 ed                	test   %ebp,%ebp
  4021fd:	7f 24                	jg     402223 <rio_read+0x4a>
  4021ff:	48 8d 6b 10          	lea    0x10(%rbx),%rbp
  402203:	8b 3b                	mov    (%rbx),%edi
  402205:	ba 00 20 00 00       	mov    $0x2000,%edx
  40220a:	48 89 ee             	mov    %rbp,%rsi
  40220d:	e8 1e eb ff ff       	callq  400d30 <read@plt>
  402212:	89 43 04             	mov    %eax,0x4(%rbx)
  402215:	85 c0                	test   %eax,%eax
  402217:	78 d5                	js     4021ee <rio_read+0x15>
  402219:	85 c0                	test   %eax,%eax
  40221b:	74 40                	je     40225d <rio_read+0x84>
  40221d:	48 89 6b 08          	mov    %rbp,0x8(%rbx)
  402221:	eb d5                	jmp    4021f8 <rio_read+0x1f>
  402223:	89 e8                	mov    %ebp,%eax
  402225:	4c 39 e0             	cmp    %r12,%rax
  402228:	72 03                	jb     40222d <rio_read+0x54>
  40222a:	44 89 e5             	mov    %r12d,%ebp
  40222d:	4c 63 e5             	movslq %ebp,%r12
  402230:	48 8b 73 08          	mov    0x8(%rbx),%rsi
  402234:	4c 89 e2             	mov    %r12,%rdx
  402237:	4c 89 ef             	mov    %r13,%rdi
  40223a:	e8 41 eb ff ff       	callq  400d80 <memcpy@plt>
  40223f:	4c 01 63 08          	add    %r12,0x8(%rbx)
  402243:	29 6b 04             	sub    %ebp,0x4(%rbx)
  402246:	4c 89 e0             	mov    %r12,%rax
  402249:	48 83 c4 08          	add    $0x8,%rsp
  40224d:	5b                   	pop    %rbx
  40224e:	5d                   	pop    %rbp
  40224f:	41 5c                	pop    %r12
  402251:	41 5d                	pop    %r13
  402253:	c3                   	retq   
  402254:	48 c7 c0 ff ff ff ff 	mov    $0xffffffffffffffff,%rax
  40225b:	eb ec                	jmp    402249 <rio_read+0x70>
  40225d:	b8 00 00 00 00       	mov    $0x0,%eax
  402262:	eb e5                	jmp    402249 <rio_read+0x70>

0000000000402264 <rio_readlineb>:
  402264:	41 55                	push   %r13
  402266:	41 54                	push   %r12
  402268:	55                   	push   %rbp
  402269:	53                   	push   %rbx
  40226a:	48 83 ec 18          	sub    $0x18,%rsp
  40226e:	49 89 fd             	mov    %rdi,%r13
  402271:	48 89 f5             	mov    %rsi,%rbp
  402274:	49 89 d4             	mov    %rdx,%r12
  402277:	64 48 8b 04 25 28 00 	mov    %fs:0x28,%rax
  40227e:	00 00 
  402280:	48 89 44 24 08       	mov    %rax,0x8(%rsp)
  402285:	31 c0                	xor    %eax,%eax
  402287:	bb 01 00 00 00       	mov    $0x1,%ebx
  40228c:	4c 39 e3             	cmp    %r12,%rbx
  40228f:	73 47                	jae    4022d8 <rio_readlineb+0x74>
  402291:	ba 01 00 00 00       	mov    $0x1,%edx
  402296:	48 8d 74 24 07       	lea    0x7(%rsp),%rsi
  40229b:	4c 89 ef             	mov    %r13,%rdi
  40229e:	e8 36 ff ff ff       	callq  4021d9 <rio_read>
  4022a3:	83 f8 01             	cmp    $0x1,%eax
  4022a6:	75 1c                	jne    4022c4 <rio_readlineb+0x60>
  4022a8:	48 8d 45 01          	lea    0x1(%rbp),%rax
  4022ac:	0f b6 54 24 07       	movzbl 0x7(%rsp),%edx
  4022b1:	88 55 00             	mov    %dl,0x0(%rbp)
  4022b4:	80 7c 24 07 0a       	cmpb   $0xa,0x7(%rsp)
  4022b9:	74 1a                	je     4022d5 <rio_readlineb+0x71>
  4022bb:	48 83 c3 01          	add    $0x1,%rbx
  4022bf:	48 89 c5             	mov    %rax,%rbp
  4022c2:	eb c8                	jmp    40228c <rio_readlineb+0x28>
  4022c4:	85 c0                	test   %eax,%eax
  4022c6:	75 32                	jne    4022fa <rio_readlineb+0x96>
  4022c8:	48 83 fb 01          	cmp    $0x1,%rbx
  4022cc:	75 0a                	jne    4022d8 <rio_readlineb+0x74>
  4022ce:	b8 00 00 00 00       	mov    $0x0,%eax
  4022d3:	eb 0a                	jmp    4022df <rio_readlineb+0x7b>
  4022d5:	48 89 c5             	mov    %rax,%rbp
  4022d8:	c6 45 00 00          	movb   $0x0,0x0(%rbp)
  4022dc:	48 89 d8             	mov    %rbx,%rax
  4022df:	48 8b 4c 24 08       	mov    0x8(%rsp),%rcx
  4022e4:	64 48 33 0c 25 28 00 	xor    %fs:0x28,%rcx
  4022eb:	00 00 
  4022ed:	75 14                	jne    402303 <rio_readlineb+0x9f>
  4022ef:	48 83 c4 18          	add    $0x18,%rsp
  4022f3:	5b                   	pop    %rbx
  4022f4:	5d                   	pop    %rbp
  4022f5:	41 5c                	pop    %r12
  4022f7:	41 5d                	pop    %r13
  4022f9:	c3                   	retq   
  4022fa:	48 c7 c0 ff ff ff ff 	mov    $0xffffffffffffffff,%rax
  402301:	eb dc                	jmp    4022df <rio_readlineb+0x7b>
  402303:	e8 d8 e9 ff ff       	callq  400ce0 <__stack_chk_fail@plt>

0000000000402308 <urlencode>:
  402308:	41 54                	push   %r12
  40230a:	55                   	push   %rbp
  40230b:	53                   	push   %rbx
  40230c:	48 83 ec 10          	sub    $0x10,%rsp
  402310:	48 89 fb             	mov    %rdi,%rbx
  402313:	48 89 f5             	mov    %rsi,%rbp
  402316:	64 48 8b 04 25 28 00 	mov    %fs:0x28,%rax
  40231d:	00 00 
  40231f:	48 89 44 24 08       	mov    %rax,0x8(%rsp)
  402324:	31 c0                	xor    %eax,%eax
  402326:	48 c7 c1 ff ff ff ff 	mov    $0xffffffffffffffff,%rcx
  40232d:	f2 ae                	repnz scas %es:(%rdi),%al
  40232f:	48 89 ce             	mov    %rcx,%rsi
  402332:	48 f7 d6             	not    %rsi
  402335:	8d 46 ff             	lea    -0x1(%rsi),%eax
  402338:	eb 0f                	jmp    402349 <urlencode+0x41>
  40233a:	44 88 45 00          	mov    %r8b,0x0(%rbp)
  40233e:	48 8d 6d 01          	lea    0x1(%rbp),%rbp
  402342:	48 83 c3 01          	add    $0x1,%rbx
  402346:	44 89 e0             	mov    %r12d,%eax
  402349:	44 8d 60 ff          	lea    -0x1(%rax),%r12d
  40234d:	85 c0                	test   %eax,%eax
  40234f:	0f 84 a6 00 00 00    	je     4023fb <urlencode+0xf3>
  402355:	44 0f b6 03          	movzbl (%rbx),%r8d
  402359:	41 80 f8 2a          	cmp    $0x2a,%r8b
  40235d:	0f 94 c2             	sete   %dl
  402360:	41 80 f8 2d          	cmp    $0x2d,%r8b
  402364:	0f 94 c0             	sete   %al
  402367:	08 c2                	or     %al,%dl
  402369:	75 cf                	jne    40233a <urlencode+0x32>
  40236b:	41 80 f8 2e          	cmp    $0x2e,%r8b
  40236f:	74 c9                	je     40233a <urlencode+0x32>
  402371:	41 80 f8 5f          	cmp    $0x5f,%r8b
  402375:	74 c3                	je     40233a <urlencode+0x32>
  402377:	41 8d 40 d0          	lea    -0x30(%r8),%eax
  40237b:	3c 09                	cmp    $0x9,%al
  40237d:	76 bb                	jbe    40233a <urlencode+0x32>
  40237f:	41 8d 40 bf          	lea    -0x41(%r8),%eax
  402383:	3c 19                	cmp    $0x19,%al
  402385:	76 b3                	jbe    40233a <urlencode+0x32>
  402387:	41 8d 40 9f          	lea    -0x61(%r8),%eax
  40238b:	3c 19                	cmp    $0x19,%al
  40238d:	76 ab                	jbe    40233a <urlencode+0x32>
  40238f:	41 80 f8 20          	cmp    $0x20,%r8b
  402393:	74 54                	je     4023e9 <urlencode+0xe1>
  402395:	41 8d 40 e0          	lea    -0x20(%r8),%eax
  402399:	3c 5f                	cmp    $0x5f,%al
  40239b:	0f 96 c2             	setbe  %dl
  40239e:	41 80 f8 09          	cmp    $0x9,%r8b
  4023a2:	0f 94 c0             	sete   %al
  4023a5:	08 c2                	or     %al,%dl
  4023a7:	74 4d                	je     4023f6 <urlencode+0xee>
  4023a9:	45 0f b6 c0          	movzbl %r8b,%r8d
  4023ad:	b9 d8 36 40 00       	mov    $0x4036d8,%ecx
  4023b2:	ba 08 00 00 00       	mov    $0x8,%edx
  4023b7:	be 01 00 00 00       	mov    $0x1,%esi
  4023bc:	48 89 e7             	mov    %rsp,%rdi
  4023bf:	b8 00 00 00 00       	mov    $0x0,%eax
  4023c4:	e8 97 ea ff ff       	callq  400e60 <__sprintf_chk@plt>
  4023c9:	0f b6 04 24          	movzbl (%rsp),%eax
  4023cd:	88 45 00             	mov    %al,0x0(%rbp)
  4023d0:	0f b6 44 24 01       	movzbl 0x1(%rsp),%eax
  4023d5:	88 45 01             	mov    %al,0x1(%rbp)
  4023d8:	0f b6 44 24 02       	movzbl 0x2(%rsp),%eax
  4023dd:	88 45 02             	mov    %al,0x2(%rbp)
  4023e0:	48 8d 6d 03          	lea    0x3(%rbp),%rbp
  4023e4:	e9 59 ff ff ff       	jmpq   402342 <urlencode+0x3a>
  4023e9:	c6 45 00 2b          	movb   $0x2b,0x0(%rbp)
  4023ed:	48 8d 6d 01          	lea    0x1(%rbp),%rbp
  4023f1:	e9 4c ff ff ff       	jmpq   402342 <urlencode+0x3a>
  4023f6:	b8 ff ff ff ff       	mov    $0xffffffff,%eax
  4023fb:	48 8b 74 24 08       	mov    0x8(%rsp),%rsi
  402400:	64 48 33 34 25 28 00 	xor    %fs:0x28,%rsi
  402407:	00 00 
  402409:	75 09                	jne    402414 <urlencode+0x10c>
  40240b:	48 83 c4 10          	add    $0x10,%rsp
  40240f:	5b                   	pop    %rbx
  402410:	5d                   	pop    %rbp
  402411:	41 5c                	pop    %r12
  402413:	c3                   	retq   
  402414:	e8 c7 e8 ff ff       	callq  400ce0 <__stack_chk_fail@plt>

0000000000402419 <submitr>:
  402419:	41 57                	push   %r15
  40241b:	41 56                	push   %r14
  40241d:	41 55                	push   %r13
  40241f:	41 54                	push   %r12
  402421:	55                   	push   %rbp
  402422:	53                   	push   %rbx
  402423:	48 81 ec 58 a0 00 00 	sub    $0xa058,%rsp
  40242a:	49 89 fc             	mov    %rdi,%r12
  40242d:	89 74 24 04          	mov    %esi,0x4(%rsp)
  402431:	49 89 d7             	mov    %rdx,%r15
  402434:	49 89 ce             	mov    %rcx,%r14
  402437:	4c 89 44 24 08       	mov    %r8,0x8(%rsp)
  40243c:	4d 89 cd             	mov    %r9,%r13
  40243f:	48 8b ac 24 90 a0 00 	mov    0xa090(%rsp),%rbp
  402446:	00 
  402447:	64 48 8b 04 25 28 00 	mov    %fs:0x28,%rax
  40244e:	00 00 
  402450:	48 89 84 24 48 a0 00 	mov    %rax,0xa048(%rsp)
  402457:	00 
  402458:	31 c0                	xor    %eax,%eax
  40245a:	c7 44 24 1c 00 00 00 	movl   $0x0,0x1c(%rsp)
  402461:	00 
  402462:	ba 00 00 00 00       	mov    $0x0,%edx
  402467:	be 01 00 00 00       	mov    $0x1,%esi
  40246c:	bf 02 00 00 00       	mov    $0x2,%edi
  402471:	e8 fa e9 ff ff       	callq  400e70 <socket@plt>
  402476:	85 c0                	test   %eax,%eax
  402478:	0f 88 9b 02 00 00    	js     402719 <submitr+0x300>
  40247e:	89 c3                	mov    %eax,%ebx
  402480:	4c 89 e7             	mov    %r12,%rdi
  402483:	e8 c8 e8 ff ff       	callq  400d50 <gethostbyname@plt>
  402488:	48 85 c0             	test   %rax,%rax
  40248b:	0f 84 d4 02 00 00    	je     402765 <submitr+0x34c>
  402491:	48 c7 44 24 22 00 00 	movq   $0x0,0x22(%rsp)
  402498:	00 00 
  40249a:	c7 44 24 2a 00 00 00 	movl   $0x0,0x2a(%rsp)
  4024a1:	00 
  4024a2:	66 c7 44 24 2e 00 00 	movw   $0x0,0x2e(%rsp)
  4024a9:	66 c7 44 24 20 02 00 	movw   $0x2,0x20(%rsp)
  4024b0:	48 63 50 14          	movslq 0x14(%rax),%rdx
  4024b4:	48 8b 40 18          	mov    0x18(%rax),%rax
  4024b8:	48 8b 30             	mov    (%rax),%rsi
  4024bb:	48 8d 7c 24 24       	lea    0x24(%rsp),%rdi
  4024c0:	b9 0c 00 00 00       	mov    $0xc,%ecx
  4024c5:	e8 96 e8 ff ff       	callq  400d60 <__memmove_chk@plt>
  4024ca:	0f b7 44 24 04       	movzwl 0x4(%rsp),%eax
  4024cf:	66 c1 c8 08          	ror    $0x8,%ax
  4024d3:	66 89 44 24 22       	mov    %ax,0x22(%rsp)
  4024d8:	ba 10 00 00 00       	mov    $0x10,%edx
  4024dd:	48 8d 74 24 20       	lea    0x20(%rsp),%rsi
  4024e2:	89 df                	mov    %ebx,%edi
  4024e4:	e8 57 e9 ff ff       	callq  400e40 <connect@plt>
  4024e9:	85 c0                	test   %eax,%eax
  4024eb:	0f 88 dc 02 00 00    	js     4027cd <submitr+0x3b4>
  4024f1:	48 c7 c6 ff ff ff ff 	mov    $0xffffffffffffffff,%rsi
  4024f8:	b8 00 00 00 00       	mov    $0x0,%eax
  4024fd:	48 89 f1             	mov    %rsi,%rcx
  402500:	4c 89 ef             	mov    %r13,%rdi
  402503:	f2 ae                	repnz scas %es:(%rdi),%al
  402505:	48 89 ca             	mov    %rcx,%rdx
  402508:	48 f7 d2             	not    %rdx
  40250b:	48 89 f1             	mov    %rsi,%rcx
  40250e:	4c 89 ff             	mov    %r15,%rdi
  402511:	f2 ae                	repnz scas %es:(%rdi),%al
  402513:	48 f7 d1             	not    %rcx
  402516:	49 89 c8             	mov    %rcx,%r8
  402519:	48 89 f1             	mov    %rsi,%rcx
  40251c:	4c 89 f7             	mov    %r14,%rdi
  40251f:	f2 ae                	repnz scas %es:(%rdi),%al
  402521:	48 f7 d1             	not    %rcx
  402524:	4d 8d 44 08 fe       	lea    -0x2(%r8,%rcx,1),%r8
  402529:	48 89 f1             	mov    %rsi,%rcx
  40252c:	48 8b 7c 24 08       	mov    0x8(%rsp),%rdi
  402531:	f2 ae                	repnz scas %es:(%rdi),%al
  402533:	48 89 c8             	mov    %rcx,%rax
  402536:	48 f7 d0             	not    %rax
  402539:	49 8d 4c 00 ff       	lea    -0x1(%r8,%rax,1),%rcx
  40253e:	48 8d 44 52 fd       	lea    -0x3(%rdx,%rdx,2),%rax
  402543:	48 8d 84 01 80 00 00 	lea    0x80(%rcx,%rax,1),%rax
  40254a:	00 
  40254b:	48 3d 00 20 00 00    	cmp    $0x2000,%rax
  402551:	0f 87 d0 02 00 00    	ja     402827 <submitr+0x40e>
  402557:	48 8d b4 24 40 40 00 	lea    0x4040(%rsp),%rsi
  40255e:	00 
  40255f:	b9 00 04 00 00       	mov    $0x400,%ecx
  402564:	b8 00 00 00 00       	mov    $0x0,%eax
  402569:	48 89 f7             	mov    %rsi,%rdi
  40256c:	f3 48 ab             	rep stos %rax,%es:(%rdi)
  40256f:	4c 89 ef             	mov    %r13,%rdi
  402572:	e8 91 fd ff ff       	callq  402308 <urlencode>
  402577:	85 c0                	test   %eax,%eax
  402579:	0f 88 1b 03 00 00    	js     40289a <submitr+0x481>
  40257f:	4c 8d ac 24 40 20 00 	lea    0x2040(%rsp),%r13
  402586:	00 
  402587:	41 54                	push   %r12
  402589:	48 8d 84 24 48 40 00 	lea    0x4048(%rsp),%rax
  402590:	00 
  402591:	50                   	push   %rax
  402592:	4d 89 f9             	mov    %r15,%r9
  402595:	4d 89 f0             	mov    %r14,%r8
  402598:	b9 68 36 40 00       	mov    $0x403668,%ecx
  40259d:	ba 00 20 00 00       	mov    $0x2000,%edx
  4025a2:	be 01 00 00 00       	mov    $0x1,%esi
  4025a7:	4c 89 ef             	mov    %r13,%rdi
  4025aa:	b8 00 00 00 00       	mov    $0x0,%eax
  4025af:	e8 ac e8 ff ff       	callq  400e60 <__sprintf_chk@plt>
  4025b4:	48 c7 c1 ff ff ff ff 	mov    $0xffffffffffffffff,%rcx
  4025bb:	b8 00 00 00 00       	mov    $0x0,%eax
  4025c0:	4c 89 ef             	mov    %r13,%rdi
  4025c3:	f2 ae                	repnz scas %es:(%rdi),%al
  4025c5:	48 89 ca             	mov    %rcx,%rdx
  4025c8:	48 f7 d2             	not    %rdx
  4025cb:	48 8d 52 ff          	lea    -0x1(%rdx),%rdx
  4025cf:	4c 89 ee             	mov    %r13,%rsi
  4025d2:	89 df                	mov    %ebx,%edi
  4025d4:	e8 a2 fb ff ff       	callq  40217b <rio_writen>
  4025d9:	48 83 c4 10          	add    $0x10,%rsp
  4025dd:	48 85 c0             	test   %rax,%rax
  4025e0:	0f 88 3f 03 00 00    	js     402925 <submitr+0x50c>
  4025e6:	89 de                	mov    %ebx,%esi
  4025e8:	48 8d 7c 24 30       	lea    0x30(%rsp),%rdi
  4025ed:	e8 49 fb ff ff       	callq  40213b <rio_readinitb>
  4025f2:	ba 00 20 00 00       	mov    $0x2000,%edx
  4025f7:	48 8d b4 24 40 20 00 	lea    0x2040(%rsp),%rsi
  4025fe:	00 
  4025ff:	48 8d 7c 24 30       	lea    0x30(%rsp),%rdi
  402604:	e8 5b fc ff ff       	callq  402264 <rio_readlineb>
  402609:	48 85 c0             	test   %rax,%rax
  40260c:	0f 8e 82 03 00 00    	jle    402994 <submitr+0x57b>
  402612:	4c 8d 84 24 40 80 00 	lea    0x8040(%rsp),%r8
  402619:	00 
  40261a:	48 8d 4c 24 1c       	lea    0x1c(%rsp),%rcx
  40261f:	48 8d 94 24 40 60 00 	lea    0x6040(%rsp),%rdx
  402626:	00 
  402627:	be df 36 40 00       	mov    $0x4036df,%esi
  40262c:	48 8d bc 24 40 20 00 	lea    0x2040(%rsp),%rdi
  402633:	00 
  402634:	b8 00 00 00 00       	mov    $0x0,%eax
  402639:	e8 82 e7 ff ff       	callq  400dc0 <__isoc99_sscanf@plt>
  40263e:	48 8d b4 24 40 20 00 	lea    0x2040(%rsp),%rsi
  402645:	00 
  402646:	bf f6 36 40 00       	mov    $0x4036f6,%edi
  40264b:	b9 03 00 00 00       	mov    $0x3,%ecx
  402650:	f3 a6                	repz cmpsb %es:(%rdi),%ds:(%rsi)
  402652:	0f 97 c0             	seta   %al
  402655:	1c 00                	sbb    $0x0,%al
  402657:	84 c0                	test   %al,%al
  402659:	0f 84 b3 03 00 00    	je     402a12 <submitr+0x5f9>
  40265f:	ba 00 20 00 00       	mov    $0x2000,%edx
  402664:	48 8d b4 24 40 20 00 	lea    0x2040(%rsp),%rsi
  40266b:	00 
  40266c:	48 8d 7c 24 30       	lea    0x30(%rsp),%rdi
  402671:	e8 ee fb ff ff       	callq  402264 <rio_readlineb>
  402676:	48 85 c0             	test   %rax,%rax
  402679:	7f c3                	jg     40263e <submitr+0x225>
  40267b:	48 b8 45 72 72 6f 72 	movabs $0x43203a726f727245,%rax
  402682:	3a 20 43 
  402685:	48 ba 6c 69 65 6e 74 	movabs $0x6e7520746e65696c,%rdx
  40268c:	20 75 6e 
  40268f:	48 89 45 00          	mov    %rax,0x0(%rbp)
  402693:	48 89 55 08          	mov    %rdx,0x8(%rbp)
  402697:	48 b8 61 62 6c 65 20 	movabs $0x206f7420656c6261,%rax
  40269e:	74 6f 20 
  4026a1:	48 ba 72 65 61 64 20 	movabs $0x6165682064616572,%rdx
  4026a8:	68 65 61 
  4026ab:	48 89 45 10          	mov    %rax,0x10(%rbp)
  4026af:	48 89 55 18          	mov    %rdx,0x18(%rbp)
  4026b3:	48 b8 64 65 72 73 20 	movabs $0x6f72662073726564,%rax
  4026ba:	66 72 6f 
  4026bd:	48 ba 6d 20 74 68 65 	movabs $0x657220656874206d,%rdx
  4026c4:	20 72 65 
  4026c7:	48 89 45 20          	mov    %rax,0x20(%rbp)
  4026cb:	48 89 55 28          	mov    %rdx,0x28(%rbp)
  4026cf:	48 b8 73 75 6c 74 20 	movabs $0x72657320746c7573,%rax
  4026d6:	73 65 72 
  4026d9:	48 89 45 30          	mov    %rax,0x30(%rbp)
  4026dd:	c7 45 38 76 65 72 00 	movl   $0x726576,0x38(%rbp)
  4026e4:	89 df                	mov    %ebx,%edi
  4026e6:	e8 35 e6 ff ff       	callq  400d20 <close@plt>
  4026eb:	b8 ff ff ff ff       	mov    $0xffffffff,%eax
  4026f0:	48 8b 9c 24 48 a0 00 	mov    0xa048(%rsp),%rbx
  4026f7:	00 
  4026f8:	64 48 33 1c 25 28 00 	xor    %fs:0x28,%rbx
  4026ff:	00 00 
  402701:	0f 85 76 04 00 00    	jne    402b7d <submitr+0x764>
  402707:	48 81 c4 58 a0 00 00 	add    $0xa058,%rsp
  40270e:	5b                   	pop    %rbx
  40270f:	5d                   	pop    %rbp
  402710:	41 5c                	pop    %r12
  402712:	41 5d                	pop    %r13
  402714:	41 5e                	pop    %r14
  402716:	41 5f                	pop    %r15
  402718:	c3                   	retq   
  402719:	48 b8 45 72 72 6f 72 	movabs $0x43203a726f727245,%rax
  402720:	3a 20 43 
  402723:	48 ba 6c 69 65 6e 74 	movabs $0x6e7520746e65696c,%rdx
  40272a:	20 75 6e 
  40272d:	48 89 45 00          	mov    %rax,0x0(%rbp)
  402731:	48 89 55 08          	mov    %rdx,0x8(%rbp)
  402735:	48 b8 61 62 6c 65 20 	movabs $0x206f7420656c6261,%rax
  40273c:	74 6f 20 
  40273f:	48 ba 63 72 65 61 74 	movabs $0x7320657461657263,%rdx
  402746:	65 20 73 
  402749:	48 89 45 10          	mov    %rax,0x10(%rbp)
  40274d:	48 89 55 18          	mov    %rdx,0x18(%rbp)
  402751:	c7 45 20 6f 63 6b 65 	movl   $0x656b636f,0x20(%rbp)
  402758:	66 c7 45 24 74 00    	movw   $0x74,0x24(%rbp)
  40275e:	b8 ff ff ff ff       	mov    $0xffffffff,%eax
  402763:	eb 8b                	jmp    4026f0 <submitr+0x2d7>
  402765:	48 b8 45 72 72 6f 72 	movabs $0x44203a726f727245,%rax
  40276c:	3a 20 44 
  40276f:	48 ba 4e 53 20 69 73 	movabs $0x6e7520736920534e,%rdx
  402776:	20 75 6e 
  402779:	48 89 45 00          	mov    %rax,0x0(%rbp)
  40277d:	48 89 55 08          	mov    %rdx,0x8(%rbp)
  402781:	48 b8 61 62 6c 65 20 	movabs $0x206f7420656c6261,%rax
  402788:	74 6f 20 
  40278b:	48 ba 72 65 73 6f 6c 	movabs $0x2065766c6f736572,%rdx
  402792:	76 65 20 
  402795:	48 89 45 10          	mov    %rax,0x10(%rbp)
  402799:	48 89 55 18          	mov    %rdx,0x18(%rbp)
  40279d:	48 b8 73 65 72 76 65 	movabs $0x6120726576726573,%rax
  4027a4:	72 20 61 
  4027a7:	48 89 45 20          	mov    %rax,0x20(%rbp)
  4027ab:	c7 45 28 64 64 72 65 	movl   $0x65726464,0x28(%rbp)
  4027b2:	66 c7 45 2c 73 73    	movw   $0x7373,0x2c(%rbp)
  4027b8:	c6 45 2e 00          	movb   $0x0,0x2e(%rbp)
  4027bc:	89 df                	mov    %ebx,%edi
  4027be:	e8 5d e5 ff ff       	callq  400d20 <close@plt>
  4027c3:	b8 ff ff ff ff       	mov    $0xffffffff,%eax
  4027c8:	e9 23 ff ff ff       	jmpq   4026f0 <submitr+0x2d7>
  4027cd:	48 b8 45 72 72 6f 72 	movabs $0x55203a726f727245,%rax
  4027d4:	3a 20 55 
  4027d7:	48 ba 6e 61 62 6c 65 	movabs $0x6f7420656c62616e,%rdx
  4027de:	20 74 6f 
  4027e1:	48 89 45 00          	mov    %rax,0x0(%rbp)
  4027e5:	48 89 55 08          	mov    %rdx,0x8(%rbp)
  4027e9:	48 b8 20 63 6f 6e 6e 	movabs $0x7463656e6e6f6320,%rax
  4027f0:	65 63 74 
  4027f3:	48 ba 20 74 6f 20 74 	movabs $0x20656874206f7420,%rdx
  4027fa:	68 65 20 
  4027fd:	48 89 45 10          	mov    %rax,0x10(%rbp)
  402801:	48 89 55 18          	mov    %rdx,0x18(%rbp)
  402805:	c7 45 20 73 65 72 76 	movl   $0x76726573,0x20(%rbp)
  40280c:	66 c7 45 24 65 72    	movw   $0x7265,0x24(%rbp)
  402812:	c6 45 26 00          	movb   $0x0,0x26(%rbp)
  402816:	89 df                	mov    %ebx,%edi
  402818:	e8 03 e5 ff ff       	callq  400d20 <close@plt>
  40281d:	b8 ff ff ff ff       	mov    $0xffffffff,%eax
  402822:	e9 c9 fe ff ff       	jmpq   4026f0 <submitr+0x2d7>
  402827:	48 b8 45 72 72 6f 72 	movabs $0x52203a726f727245,%rax
  40282e:	3a 20 52 
  402831:	48 ba 65 73 75 6c 74 	movabs $0x747320746c757365,%rdx
  402838:	20 73 74 
  40283b:	48 89 45 00          	mov    %rax,0x0(%rbp)
  40283f:	48 89 55 08          	mov    %rdx,0x8(%rbp)
  402843:	48 b8 72 69 6e 67 20 	movabs $0x6f6f7420676e6972,%rax
  40284a:	74 6f 6f 
  40284d:	48 ba 20 6c 61 72 67 	movabs $0x202e656772616c20,%rdx
  402854:	65 2e 20 
  402857:	48 89 45 10          	mov    %rax,0x10(%rbp)
  40285b:	48 89 55 18          	mov    %rdx,0x18(%rbp)
  40285f:	48 b8 49 6e 63 72 65 	movabs $0x6573616572636e49,%rax
  402866:	61 73 65 
  402869:	48 ba 20 53 55 42 4d 	movabs $0x5254494d42555320,%rdx
  402870:	49 54 52 
  402873:	48 89 45 20          	mov    %rax,0x20(%rbp)
  402877:	48 89 55 28          	mov    %rdx,0x28(%rbp)
  40287b:	48 b8 5f 4d 41 58 42 	movabs $0x46554258414d5f,%rax
  402882:	55 46 00 
  402885:	48 89 45 30          	mov    %rax,0x30(%rbp)
  402889:	89 df                	mov    %ebx,%edi
  40288b:	e8 90 e4 ff ff       	callq  400d20 <close@plt>
  402890:	b8 ff ff ff ff       	mov    $0xffffffff,%eax
  402895:	e9 56 fe ff ff       	jmpq   4026f0 <submitr+0x2d7>
  40289a:	48 b8 45 72 72 6f 72 	movabs $0x52203a726f727245,%rax
  4028a1:	3a 20 52 
  4028a4:	48 ba 65 73 75 6c 74 	movabs $0x747320746c757365,%rdx
  4028ab:	20 73 74 
  4028ae:	48 89 45 00          	mov    %rax,0x0(%rbp)
  4028b2:	48 89 55 08          	mov    %rdx,0x8(%rbp)
  4028b6:	48 b8 72 69 6e 67 20 	movabs $0x6e6f6320676e6972,%rax
  4028bd:	63 6f 6e 
  4028c0:	48 ba 74 61 69 6e 73 	movabs $0x6e6120736e696174,%rdx
  4028c7:	20 61 6e 
  4028ca:	48 89 45 10          	mov    %rax,0x10(%rbp)
  4028ce:	48 89 55 18          	mov    %rdx,0x18(%rbp)
  4028d2:	48 b8 20 69 6c 6c 65 	movabs $0x6c6167656c6c6920,%rax
  4028d9:	67 61 6c 
  4028dc:	48 ba 20 6f 72 20 75 	movabs $0x72706e7520726f20,%rdx
  4028e3:	6e 70 72 
  4028e6:	48 89 45 20          	mov    %rax,0x20(%rbp)
  4028ea:	48 89 55 28          	mov    %rdx,0x28(%rbp)
  4028ee:	48 b8 69 6e 74 61 62 	movabs $0x20656c6261746e69,%rax
  4028f5:	6c 65 20 
  4028f8:	48 ba 63 68 61 72 61 	movabs $0x6574636172616863,%rdx
  4028ff:	63 74 65 
  402902:	48 89 45 30          	mov    %rax,0x30(%rbp)
  402906:	48 89 55 38          	mov    %rdx,0x38(%rbp)
  40290a:	66 c7 45 40 72 2e    	movw   $0x2e72,0x40(%rbp)
  402910:	c6 45 42 00          	movb   $0x0,0x42(%rbp)
  402914:	89 df                	mov    %ebx,%edi
  402916:	e8 05 e4 ff ff       	callq  400d20 <close@plt>
  40291b:	b8 ff ff ff ff       	mov    $0xffffffff,%eax
  402920:	e9 cb fd ff ff       	jmpq   4026f0 <submitr+0x2d7>
  402925:	48 b8 45 72 72 6f 72 	movabs $0x43203a726f727245,%rax
  40292c:	3a 20 43 
  40292f:	48 ba 6c 69 65 6e 74 	movabs $0x6e7520746e65696c,%rdx
  402936:	20 75 6e 
  402939:	48 89 45 00          	mov    %rax,0x0(%rbp)
  40293d:	48 89 55 08          	mov    %rdx,0x8(%rbp)
  402941:	48 b8 61 62 6c 65 20 	movabs $0x206f7420656c6261,%rax
  402948:	74 6f 20 
  40294b:	48 ba 77 72 69 74 65 	movabs $0x6f74206574697277,%rdx
  402952:	20 74 6f 
  402955:	48 89 45 10          	mov    %rax,0x10(%rbp)
  402959:	48 89 55 18          	mov    %rdx,0x18(%rbp)
  40295d:	48 b8 20 74 68 65 20 	movabs $0x7365722065687420,%rax
  402964:	72 65 73 
  402967:	48 ba 75 6c 74 20 73 	movabs $0x7672657320746c75,%rdx
  40296e:	65 72 76 
  402971:	48 89 45 20          	mov    %rax,0x20(%rbp)
  402975:	48 89 55 28          	mov    %rdx,0x28(%rbp)
  402979:	66 c7 45 30 65 72    	movw   $0x7265,0x30(%rbp)
  40297f:	c6 45 32 00          	movb   $0x0,0x32(%rbp)
  402983:	89 df                	mov    %ebx,%edi
  402985:	e8 96 e3 ff ff       	callq  400d20 <close@plt>
  40298a:	b8 ff ff ff ff       	mov    $0xffffffff,%eax
  40298f:	e9 5c fd ff ff       	jmpq   4026f0 <submitr+0x2d7>
  402994:	48 b8 45 72 72 6f 72 	movabs $0x43203a726f727245,%rax
  40299b:	3a 20 43 
  40299e:	48 ba 6c 69 65 6e 74 	movabs $0x6e7520746e65696c,%rdx
  4029a5:	20 75 6e 
  4029a8:	48 89 45 00          	mov    %rax,0x0(%rbp)
  4029ac:	48 89 55 08          	mov    %rdx,0x8(%rbp)
  4029b0:	48 b8 61 62 6c 65 20 	movabs $0x206f7420656c6261,%rax
  4029b7:	74 6f 20 
  4029ba:	48 ba 72 65 61 64 20 	movabs $0x7269662064616572,%rdx
  4029c1:	66 69 72 
  4029c4:	48 89 45 10          	mov    %rax,0x10(%rbp)
  4029c8:	48 89 55 18          	mov    %rdx,0x18(%rbp)
  4029cc:	48 b8 73 74 20 68 65 	movabs $0x6564616568207473,%rax
  4029d3:	61 64 65 
  4029d6:	48 ba 72 20 66 72 6f 	movabs $0x72206d6f72662072,%rdx
  4029dd:	6d 20 72 
  4029e0:	48 89 45 20          	mov    %rax,0x20(%rbp)
  4029e4:	48 89 55 28          	mov    %rdx,0x28(%rbp)
  4029e8:	48 b8 65 73 75 6c 74 	movabs $0x657320746c757365,%rax
  4029ef:	20 73 65 
  4029f2:	48 89 45 30          	mov    %rax,0x30(%rbp)
  4029f6:	c7 45 38 72 76 65 72 	movl   $0x72657672,0x38(%rbp)
  4029fd:	c6 45 3c 00          	movb   $0x0,0x3c(%rbp)
  402a01:	89 df                	mov    %ebx,%edi
  402a03:	e8 18 e3 ff ff       	callq  400d20 <close@plt>
  402a08:	b8 ff ff ff ff       	mov    $0xffffffff,%eax
  402a0d:	e9 de fc ff ff       	jmpq   4026f0 <submitr+0x2d7>
  402a12:	ba 00 20 00 00       	mov    $0x2000,%edx
  402a17:	48 8d b4 24 40 20 00 	lea    0x2040(%rsp),%rsi
  402a1e:	00 
  402a1f:	48 8d 7c 24 30       	lea    0x30(%rsp),%rdi
  402a24:	e8 3b f8 ff ff       	callq  402264 <rio_readlineb>
  402a29:	48 85 c0             	test   %rax,%rax
  402a2c:	0f 8e 90 00 00 00    	jle    402ac2 <submitr+0x6a9>
  402a32:	44 8b 44 24 1c       	mov    0x1c(%rsp),%r8d
  402a37:	41 81 f8 c8 00 00 00 	cmp    $0xc8,%r8d
  402a3e:	0f 85 02 01 00 00    	jne    402b46 <submitr+0x72d>
  402a44:	48 8d b4 24 40 20 00 	lea    0x2040(%rsp),%rsi
  402a4b:	00 
  402a4c:	48 89 ef             	mov    %rbp,%rdi
  402a4f:	e8 5c e2 ff ff       	callq  400cb0 <strcpy@plt>
  402a54:	89 df                	mov    %ebx,%edi
  402a56:	e8 c5 e2 ff ff       	callq  400d20 <close@plt>
  402a5b:	bf f0 36 40 00       	mov    $0x4036f0,%edi
  402a60:	b9 04 00 00 00       	mov    $0x4,%ecx
  402a65:	48 89 ee             	mov    %rbp,%rsi
  402a68:	f3 a6                	repz cmpsb %es:(%rdi),%ds:(%rsi)
  402a6a:	0f 97 c0             	seta   %al
  402a6d:	1c 00                	sbb    $0x0,%al
  402a6f:	0f be c0             	movsbl %al,%eax
  402a72:	85 c0                	test   %eax,%eax
  402a74:	0f 84 76 fc ff ff    	je     4026f0 <submitr+0x2d7>
  402a7a:	bf f4 36 40 00       	mov    $0x4036f4,%edi
  402a7f:	b9 05 00 00 00       	mov    $0x5,%ecx
  402a84:	48 89 ee             	mov    %rbp,%rsi
  402a87:	f3 a6                	repz cmpsb %es:(%rdi),%ds:(%rsi)
  402a89:	0f 97 c0             	seta   %al
  402a8c:	1c 00                	sbb    $0x0,%al
  402a8e:	0f be c0             	movsbl %al,%eax
  402a91:	85 c0                	test   %eax,%eax
  402a93:	0f 84 57 fc ff ff    	je     4026f0 <submitr+0x2d7>
  402a99:	bf f9 36 40 00       	mov    $0x4036f9,%edi
  402a9e:	b9 03 00 00 00       	mov    $0x3,%ecx
  402aa3:	48 89 ee             	mov    %rbp,%rsi
  402aa6:	f3 a6                	repz cmpsb %es:(%rdi),%ds:(%rsi)
  402aa8:	0f 97 c0             	seta   %al
  402aab:	1c 00                	sbb    $0x0,%al
  402aad:	0f be c0             	movsbl %al,%eax
  402ab0:	85 c0                	test   %eax,%eax
  402ab2:	0f 84 38 fc ff ff    	je     4026f0 <submitr+0x2d7>
  402ab8:	b8 ff ff ff ff       	mov    $0xffffffff,%eax
  402abd:	e9 2e fc ff ff       	jmpq   4026f0 <submitr+0x2d7>
  402ac2:	48 b8 45 72 72 6f 72 	movabs $0x43203a726f727245,%rax
  402ac9:	3a 20 43 
  402acc:	48 ba 6c 69 65 6e 74 	movabs $0x6e7520746e65696c,%rdx
  402ad3:	20 75 6e 
  402ad6:	48 89 45 00          	mov    %rax,0x0(%rbp)
  402ada:	48 89 55 08          	mov    %rdx,0x8(%rbp)
  402ade:	48 b8 61 62 6c 65 20 	movabs $0x206f7420656c6261,%rax
  402ae5:	74 6f 20 
  402ae8:	48 ba 72 65 61 64 20 	movabs $0x6174732064616572,%rdx
  402aef:	73 74 61 
  402af2:	48 89 45 10          	mov    %rax,0x10(%rbp)
  402af6:	48 89 55 18          	mov    %rdx,0x18(%rbp)
  402afa:	48 b8 74 75 73 20 6d 	movabs $0x7373656d20737574,%rax
  402b01:	65 73 73 
  402b04:	48 ba 61 67 65 20 66 	movabs $0x6d6f726620656761,%rdx
  402b0b:	72 6f 6d 
  402b0e:	48 89 45 20          	mov    %rax,0x20(%rbp)
  402b12:	48 89 55 28          	mov    %rdx,0x28(%rbp)
  402b16:	48 b8 20 72 65 73 75 	movabs $0x20746c7573657220,%rax
  402b1d:	6c 74 20 
  402b20:	48 89 45 30          	mov    %rax,0x30(%rbp)
  402b24:	c7 45 38 73 65 72 76 	movl   $0x76726573,0x38(%rbp)
  402b2b:	66 c7 45 3c 65 72    	movw   $0x7265,0x3c(%rbp)
  402b31:	c6 45 3e 00          	movb   $0x0,0x3e(%rbp)
  402b35:	89 df                	mov    %ebx,%edi
  402b37:	e8 e4 e1 ff ff       	callq  400d20 <close@plt>
  402b3c:	b8 ff ff ff ff       	mov    $0xffffffff,%eax
  402b41:	e9 aa fb ff ff       	jmpq   4026f0 <submitr+0x2d7>
  402b46:	4c 8d 8c 24 40 80 00 	lea    0x8040(%rsp),%r9
  402b4d:	00 
  402b4e:	b9 a8 36 40 00       	mov    $0x4036a8,%ecx
  402b53:	48 c7 c2 ff ff ff ff 	mov    $0xffffffffffffffff,%rdx
  402b5a:	be 01 00 00 00       	mov    $0x1,%esi
  402b5f:	48 89 ef             	mov    %rbp,%rdi
  402b62:	b8 00 00 00 00       	mov    $0x0,%eax
  402b67:	e8 f4 e2 ff ff       	callq  400e60 <__sprintf_chk@plt>
  402b6c:	89 df                	mov    %ebx,%edi
  402b6e:	e8 ad e1 ff ff       	callq  400d20 <close@plt>
  402b73:	b8 ff ff ff ff       	mov    $0xffffffff,%eax
  402b78:	e9 73 fb ff ff       	jmpq   4026f0 <submitr+0x2d7>
  402b7d:	e8 5e e1 ff ff       	callq  400ce0 <__stack_chk_fail@plt>

0000000000402b82 <init_timeout>:
  402b82:	85 ff                	test   %edi,%edi
  402b84:	74 26                	je     402bac <init_timeout+0x2a>
  402b86:	53                   	push   %rbx
  402b87:	89 fb                	mov    %edi,%ebx
  402b89:	85 ff                	test   %edi,%edi
  402b8b:	78 18                	js     402ba5 <init_timeout+0x23>
  402b8d:	be 4d 21 40 00       	mov    $0x40214d,%esi
  402b92:	bf 0e 00 00 00       	mov    $0xe,%edi
  402b97:	e8 a4 e1 ff ff       	callq  400d40 <signal@plt>
  402b9c:	89 df                	mov    %ebx,%edi
  402b9e:	e8 6d e1 ff ff       	callq  400d10 <alarm@plt>
  402ba3:	5b                   	pop    %rbx
  402ba4:	c3                   	retq   
  402ba5:	bb 00 00 00 00       	mov    $0x0,%ebx
  402baa:	eb e1                	jmp    402b8d <init_timeout+0xb>
  402bac:	f3 c3                	repz retq 

0000000000402bae <init_driver>:
  402bae:	55                   	push   %rbp
  402baf:	53                   	push   %rbx
  402bb0:	48 83 ec 28          	sub    $0x28,%rsp
  402bb4:	48 89 fd             	mov    %rdi,%rbp
  402bb7:	64 48 8b 04 25 28 00 	mov    %fs:0x28,%rax
  402bbe:	00 00 
  402bc0:	48 89 44 24 18       	mov    %rax,0x18(%rsp)
  402bc5:	31 c0                	xor    %eax,%eax
  402bc7:	be 01 00 00 00       	mov    $0x1,%esi
  402bcc:	bf 0d 00 00 00       	mov    $0xd,%edi
  402bd1:	e8 6a e1 ff ff       	callq  400d40 <signal@plt>
  402bd6:	be 01 00 00 00       	mov    $0x1,%esi
  402bdb:	bf 1d 00 00 00       	mov    $0x1d,%edi
  402be0:	e8 5b e1 ff ff       	callq  400d40 <signal@plt>
  402be5:	be 01 00 00 00       	mov    $0x1,%esi
  402bea:	bf 1d 00 00 00       	mov    $0x1d,%edi
  402bef:	e8 4c e1 ff ff       	callq  400d40 <signal@plt>
  402bf4:	ba 00 00 00 00       	mov    $0x0,%edx
  402bf9:	be 01 00 00 00       	mov    $0x1,%esi
  402bfe:	bf 02 00 00 00       	mov    $0x2,%edi
  402c03:	e8 68 e2 ff ff       	callq  400e70 <socket@plt>
  402c08:	85 c0                	test   %eax,%eax
  402c0a:	0f 88 9c 00 00 00    	js     402cac <init_driver+0xfe>
  402c10:	89 c3                	mov    %eax,%ebx
  402c12:	bf fc 36 40 00       	mov    $0x4036fc,%edi
  402c17:	e8 34 e1 ff ff       	callq  400d50 <gethostbyname@plt>
  402c1c:	48 85 c0             	test   %rax,%rax
  402c1f:	0f 84 d3 00 00 00    	je     402cf8 <init_driver+0x14a>
  402c25:	48 c7 44 24 02 00 00 	movq   $0x0,0x2(%rsp)
  402c2c:	00 00 
  402c2e:	c7 44 24 0a 00 00 00 	movl   $0x0,0xa(%rsp)
  402c35:	00 
  402c36:	66 c7 44 24 0e 00 00 	movw   $0x0,0xe(%rsp)
  402c3d:	66 c7 04 24 02 00    	movw   $0x2,(%rsp)
  402c43:	48 63 50 14          	movslq 0x14(%rax),%rdx
  402c47:	48 8b 40 18          	mov    0x18(%rax),%rax
  402c4b:	48 8b 30             	mov    (%rax),%rsi
  402c4e:	48 8d 7c 24 04       	lea    0x4(%rsp),%rdi
  402c53:	b9 0c 00 00 00       	mov    $0xc,%ecx
  402c58:	e8 03 e1 ff ff       	callq  400d60 <__memmove_chk@plt>
  402c5d:	66 c7 44 24 02 3c 9a 	movw   $0x9a3c,0x2(%rsp)
  402c64:	ba 10 00 00 00       	mov    $0x10,%edx
  402c69:	48 89 e6             	mov    %rsp,%rsi
  402c6c:	89 df                	mov    %ebx,%edi
  402c6e:	e8 cd e1 ff ff       	callq  400e40 <connect@plt>
  402c73:	85 c0                	test   %eax,%eax
  402c75:	0f 88 e5 00 00 00    	js     402d60 <init_driver+0x1b2>
  402c7b:	89 df                	mov    %ebx,%edi
  402c7d:	e8 9e e0 ff ff       	callq  400d20 <close@plt>
  402c82:	66 c7 45 00 4f 4b    	movw   $0x4b4f,0x0(%rbp)
  402c88:	c6 45 02 00          	movb   $0x0,0x2(%rbp)
  402c8c:	b8 00 00 00 00       	mov    $0x0,%eax
  402c91:	48 8b 4c 24 18       	mov    0x18(%rsp),%rcx
  402c96:	64 48 33 0c 25 28 00 	xor    %fs:0x28,%rcx
  402c9d:	00 00 
  402c9f:	0f 85 0e 01 00 00    	jne    402db3 <init_driver+0x205>
  402ca5:	48 83 c4 28          	add    $0x28,%rsp
  402ca9:	5b                   	pop    %rbx
  402caa:	5d                   	pop    %rbp
  402cab:	c3                   	retq   
  402cac:	48 b8 45 72 72 6f 72 	movabs $0x43203a726f727245,%rax
  402cb3:	3a 20 43 
  402cb6:	48 ba 6c 69 65 6e 74 	movabs $0x6e7520746e65696c,%rdx
  402cbd:	20 75 6e 
  402cc0:	48 89 45 00          	mov    %rax,0x0(%rbp)
  402cc4:	48 89 55 08          	mov    %rdx,0x8(%rbp)
  402cc8:	48 b8 61 62 6c 65 20 	movabs $0x206f7420656c6261,%rax
  402ccf:	74 6f 20 
  402cd2:	48 ba 63 72 65 61 74 	movabs $0x7320657461657263,%rdx
  402cd9:	65 20 73 
  402cdc:	48 89 45 10          	mov    %rax,0x10(%rbp)
  402ce0:	48 89 55 18          	mov    %rdx,0x18(%rbp)
  402ce4:	c7 45 20 6f 63 6b 65 	movl   $0x656b636f,0x20(%rbp)
  402ceb:	66 c7 45 24 74 00    	movw   $0x74,0x24(%rbp)
  402cf1:	b8 ff ff ff ff       	mov    $0xffffffff,%eax
  402cf6:	eb 99                	jmp    402c91 <init_driver+0xe3>
  402cf8:	48 b8 45 72 72 6f 72 	movabs $0x44203a726f727245,%rax
  402cff:	3a 20 44 
  402d02:	48 ba 4e 53 20 69 73 	movabs $0x6e7520736920534e,%rdx
  402d09:	20 75 6e 
  402d0c:	48 89 45 00          	mov    %rax,0x0(%rbp)
  402d10:	48 89 55 08          	mov    %rdx,0x8(%rbp)
  402d14:	48 b8 61 62 6c 65 20 	movabs $0x206f7420656c6261,%rax
  402d1b:	74 6f 20 
  402d1e:	48 ba 72 65 73 6f 6c 	movabs $0x2065766c6f736572,%rdx
  402d25:	76 65 20 
  402d28:	48 89 45 10          	mov    %rax,0x10(%rbp)
  402d2c:	48 89 55 18          	mov    %rdx,0x18(%rbp)
  402d30:	48 b8 73 65 72 76 65 	movabs $0x6120726576726573,%rax
  402d37:	72 20 61 
  402d3a:	48 89 45 20          	mov    %rax,0x20(%rbp)
  402d3e:	c7 45 28 64 64 72 65 	movl   $0x65726464,0x28(%rbp)
  402d45:	66 c7 45 2c 73 73    	movw   $0x7373,0x2c(%rbp)
  402d4b:	c6 45 2e 00          	movb   $0x0,0x2e(%rbp)
  402d4f:	89 df                	mov    %ebx,%edi
  402d51:	e8 ca df ff ff       	callq  400d20 <close@plt>
  402d56:	b8 ff ff ff ff       	mov    $0xffffffff,%eax
  402d5b:	e9 31 ff ff ff       	jmpq   402c91 <init_driver+0xe3>
  402d60:	48 b8 45 72 72 6f 72 	movabs $0x55203a726f727245,%rax
  402d67:	3a 20 55 
  402d6a:	48 ba 6e 61 62 6c 65 	movabs $0x6f7420656c62616e,%rdx
  402d71:	20 74 6f 
  402d74:	48 89 45 00          	mov    %rax,0x0(%rbp)
  402d78:	48 89 55 08          	mov    %rdx,0x8(%rbp)
  402d7c:	48 b8 20 63 6f 6e 6e 	movabs $0x7463656e6e6f6320,%rax
  402d83:	65 63 74 
  402d86:	48 ba 20 74 6f 20 73 	movabs $0x76726573206f7420,%rdx
  402d8d:	65 72 76 
  402d90:	48 89 45 10          	mov    %rax,0x10(%rbp)
  402d94:	48 89 55 18          	mov    %rdx,0x18(%rbp)
  402d98:	66 c7 45 20 65 72    	movw   $0x7265,0x20(%rbp)
  402d9e:	c6 45 22 00          	movb   $0x0,0x22(%rbp)
  402da2:	89 df                	mov    %ebx,%edi
  402da4:	e8 77 df ff ff       	callq  400d20 <close@plt>
  402da9:	b8 ff ff ff ff       	mov    $0xffffffff,%eax
  402dae:	e9 de fe ff ff       	jmpq   402c91 <init_driver+0xe3>
  402db3:	e8 28 df ff ff       	callq  400ce0 <__stack_chk_fail@plt>

0000000000402db8 <driver_post>:
  402db8:	53                   	push   %rbx
  402db9:	4c 89 cb             	mov    %r9,%rbx
  402dbc:	45 85 c0             	test   %r8d,%r8d
  402dbf:	75 18                	jne    402dd9 <driver_post+0x21>
  402dc1:	48 85 ff             	test   %rdi,%rdi
  402dc4:	74 05                	je     402dcb <driver_post+0x13>
  402dc6:	80 3f 00             	cmpb   $0x0,(%rdi)
  402dc9:	75 35                	jne    402e00 <driver_post+0x48>
  402dcb:	66 c7 03 4f 4b       	movw   $0x4b4f,(%rbx)
  402dd0:	c6 43 02 00          	movb   $0x0,0x2(%rbx)
  402dd4:	44 89 c0             	mov    %r8d,%eax
  402dd7:	5b                   	pop    %rbx
  402dd8:	c3                   	retq   
  402dd9:	48 89 ca             	mov    %rcx,%rdx
  402ddc:	be 14 37 40 00       	mov    $0x403714,%esi
  402de1:	bf 01 00 00 00       	mov    $0x1,%edi
  402de6:	b8 00 00 00 00       	mov    $0x0,%eax
  402deb:	e8 f0 df ff ff       	callq  400de0 <__printf_chk@plt>
  402df0:	66 c7 03 4f 4b       	movw   $0x4b4f,(%rbx)
  402df5:	c6 43 02 00          	movb   $0x0,0x2(%rbx)
  402df9:	b8 00 00 00 00       	mov    $0x0,%eax
  402dfe:	eb d7                	jmp    402dd7 <driver_post+0x1f>
  402e00:	48 83 ec 08          	sub    $0x8,%rsp
  402e04:	41 51                	push   %r9
  402e06:	49 89 c9             	mov    %rcx,%r9
  402e09:	49 89 d0             	mov    %rdx,%r8
  402e0c:	48 89 f9             	mov    %rdi,%rcx
  402e0f:	48 89 f2             	mov    %rsi,%rdx
  402e12:	be 9a 3c 00 00       	mov    $0x3c9a,%esi
  402e17:	bf fc 36 40 00       	mov    $0x4036fc,%edi
  402e1c:	e8 f8 f5 ff ff       	callq  402419 <submitr>
  402e21:	48 83 c4 10          	add    $0x10,%rsp
  402e25:	eb b0                	jmp    402dd7 <driver_post+0x1f>

0000000000402e27 <check>:
  402e27:	89 f8                	mov    %edi,%eax
  402e29:	c1 e8 1c             	shr    $0x1c,%eax
  402e2c:	85 c0                	test   %eax,%eax
  402e2e:	74 1d                	je     402e4d <check+0x26>
  402e30:	b9 00 00 00 00       	mov    $0x0,%ecx
  402e35:	83 f9 1f             	cmp    $0x1f,%ecx
  402e38:	7f 0d                	jg     402e47 <check+0x20>
  402e3a:	89 f8                	mov    %edi,%eax
  402e3c:	d3 e8                	shr    %cl,%eax
  402e3e:	3c 0a                	cmp    $0xa,%al
  402e40:	74 11                	je     402e53 <check+0x2c>
  402e42:	83 c1 08             	add    $0x8,%ecx
  402e45:	eb ee                	jmp    402e35 <check+0xe>
  402e47:	b8 01 00 00 00       	mov    $0x1,%eax
  402e4c:	c3                   	retq   
  402e4d:	b8 00 00 00 00       	mov    $0x0,%eax
  402e52:	c3                   	retq   
  402e53:	b8 00 00 00 00       	mov    $0x0,%eax
  402e58:	c3                   	retq   

0000000000402e59 <gencookie>:
  402e59:	53                   	push   %rbx
  402e5a:	83 c7 01             	add    $0x1,%edi
  402e5d:	e8 2e de ff ff       	callq  400c90 <srandom@plt>
  402e62:	e8 39 df ff ff       	callq  400da0 <random@plt>
  402e67:	89 c3                	mov    %eax,%ebx
  402e69:	89 c7                	mov    %eax,%edi
  402e6b:	e8 b7 ff ff ff       	callq  402e27 <check>
  402e70:	85 c0                	test   %eax,%eax
  402e72:	74 ee                	je     402e62 <gencookie+0x9>
  402e74:	89 d8                	mov    %ebx,%eax
  402e76:	5b                   	pop    %rbx
  402e77:	c3                   	retq   
  402e78:	0f 1f 84 00 00 00 00 	nopl   0x0(%rax,%rax,1)
  402e7f:	00 

0000000000402e80 <__libc_csu_init>:
  402e80:	41 57                	push   %r15
  402e82:	41 56                	push   %r14
  402e84:	49 89 d7             	mov    %rdx,%r15
  402e87:	41 55                	push   %r13
  402e89:	41 54                	push   %r12
  402e8b:	4c 8d 25 7e 1f 20 00 	lea    0x201f7e(%rip),%r12        # 604e10 <__frame_dummy_init_array_entry>
  402e92:	55                   	push   %rbp
  402e93:	48 8d 2d 7e 1f 20 00 	lea    0x201f7e(%rip),%rbp        # 604e18 <__init_array_end>
  402e9a:	53                   	push   %rbx
  402e9b:	41 89 fd             	mov    %edi,%r13d
  402e9e:	49 89 f6             	mov    %rsi,%r14
  402ea1:	4c 29 e5             	sub    %r12,%rbp
  402ea4:	48 83 ec 08          	sub    $0x8,%rsp
  402ea8:	48 c1 fd 03          	sar    $0x3,%rbp
  402eac:	e8 97 dd ff ff       	callq  400c48 <_init>
  402eb1:	48 85 ed             	test   %rbp,%rbp
  402eb4:	74 20                	je     402ed6 <__libc_csu_init+0x56>
  402eb6:	31 db                	xor    %ebx,%ebx
  402eb8:	0f 1f 84 00 00 00 00 	nopl   0x0(%rax,%rax,1)
  402ebf:	00 
  402ec0:	4c 89 fa             	mov    %r15,%rdx
  402ec3:	4c 89 f6             	mov    %r14,%rsi
  402ec6:	44 89 ef             	mov    %r13d,%edi
  402ec9:	41 ff 14 dc          	callq  *(%r12,%rbx,8)
  402ecd:	48 83 c3 01          	add    $0x1,%rbx
  402ed1:	48 39 dd             	cmp    %rbx,%rbp
  402ed4:	75 ea                	jne    402ec0 <__libc_csu_init+0x40>
  402ed6:	48 83 c4 08          	add    $0x8,%rsp
  402eda:	5b                   	pop    %rbx
  402edb:	5d                   	pop    %rbp
  402edc:	41 5c                	pop    %r12
  402ede:	41 5d                	pop    %r13
  402ee0:	41 5e                	pop    %r14
  402ee2:	41 5f                	pop    %r15
  402ee4:	c3                   	retq   
  402ee5:	90                   	nop
  402ee6:	66 2e 0f 1f 84 00 00 	nopw   %cs:0x0(%rax,%rax,1)
  402eed:	00 00 00 

0000000000402ef0 <__libc_csu_fini>:
  402ef0:	f3 c3                	repz retq 

Disassembly of section .fini:

0000000000402ef4 <_fini>:
  402ef4:	48 83 ec 08          	sub    $0x8,%rsp
  402ef8:	48 83 c4 08          	add    $0x8,%rsp
  402efc:	c3                   	retq   
