
rtarget:     file format elf64-x86-64


Disassembly of section .init:

0000000000400c48 <_init>:
  400c48:	48 83 ec 08          	sub    $0x8,%rsp
  400c4c:	48 8b 05 a5 43 20 00 	mov    0x2043a5(%rip),%rax        # 604ff8 <__gmon_start__>
  400c53:	48 85 c0             	test   %rax,%rax
  400c56:	74 02                	je     400c5a <_init+0x12>
  400c58:	ff d0                	callq  *%rax
  400c5a:	48 83 c4 08          	add    $0x8,%rsp
  400c5e:	c3                   	retq   

Disassembly of section .plt:

0000000000400c60 <.plt>:
  400c60:	ff 35 a2 43 20 00    	pushq  0x2043a2(%rip)        # 605008 <_GLOBAL_OFFSET_TABLE_+0x8>
  400c66:	ff 25 a4 43 20 00    	jmpq   *0x2043a4(%rip)        # 605010 <_GLOBAL_OFFSET_TABLE_+0x10>
  400c6c:	0f 1f 40 00          	nopl   0x0(%rax)

0000000000400c70 <strcasecmp@plt>:
  400c70:	ff 25 a2 43 20 00    	jmpq   *0x2043a2(%rip)        # 605018 <strcasecmp@GLIBC_2.2.5>
  400c76:	68 00 00 00 00       	pushq  $0x0
  400c7b:	e9 e0 ff ff ff       	jmpq   400c60 <.plt>

0000000000400c80 <__errno_location@plt>:
  400c80:	ff 25 9a 43 20 00    	jmpq   *0x20439a(%rip)        # 605020 <__errno_location@GLIBC_2.2.5>
  400c86:	68 01 00 00 00       	pushq  $0x1
  400c8b:	e9 d0 ff ff ff       	jmpq   400c60 <.plt>

0000000000400c90 <srandom@plt>:
  400c90:	ff 25 92 43 20 00    	jmpq   *0x204392(%rip)        # 605028 <srandom@GLIBC_2.2.5>
  400c96:	68 02 00 00 00       	pushq  $0x2
  400c9b:	e9 c0 ff ff ff       	jmpq   400c60 <.plt>

0000000000400ca0 <strncmp@plt>:
  400ca0:	ff 25 8a 43 20 00    	jmpq   *0x20438a(%rip)        # 605030 <strncmp@GLIBC_2.2.5>
  400ca6:	68 03 00 00 00       	pushq  $0x3
  400cab:	e9 b0 ff ff ff       	jmpq   400c60 <.plt>

0000000000400cb0 <strcpy@plt>:
  400cb0:	ff 25 82 43 20 00    	jmpq   *0x204382(%rip)        # 605038 <strcpy@GLIBC_2.2.5>
  400cb6:	68 04 00 00 00       	pushq  $0x4
  400cbb:	e9 a0 ff ff ff       	jmpq   400c60 <.plt>

0000000000400cc0 <puts@plt>:
  400cc0:	ff 25 7a 43 20 00    	jmpq   *0x20437a(%rip)        # 605040 <puts@GLIBC_2.2.5>
  400cc6:	68 05 00 00 00       	pushq  $0x5
  400ccb:	e9 90 ff ff ff       	jmpq   400c60 <.plt>

0000000000400cd0 <write@plt>:
  400cd0:	ff 25 72 43 20 00    	jmpq   *0x204372(%rip)        # 605048 <write@GLIBC_2.2.5>
  400cd6:	68 06 00 00 00       	pushq  $0x6
  400cdb:	e9 80 ff ff ff       	jmpq   400c60 <.plt>

0000000000400ce0 <__stack_chk_fail@plt>:
  400ce0:	ff 25 6a 43 20 00    	jmpq   *0x20436a(%rip)        # 605050 <__stack_chk_fail@GLIBC_2.4>
  400ce6:	68 07 00 00 00       	pushq  $0x7
  400ceb:	e9 70 ff ff ff       	jmpq   400c60 <.plt>

0000000000400cf0 <mmap@plt>:
  400cf0:	ff 25 62 43 20 00    	jmpq   *0x204362(%rip)        # 605058 <mmap@GLIBC_2.2.5>
  400cf6:	68 08 00 00 00       	pushq  $0x8
  400cfb:	e9 60 ff ff ff       	jmpq   400c60 <.plt>

0000000000400d00 <memset@plt>:
  400d00:	ff 25 5a 43 20 00    	jmpq   *0x20435a(%rip)        # 605060 <memset@GLIBC_2.2.5>
  400d06:	68 09 00 00 00       	pushq  $0x9
  400d0b:	e9 50 ff ff ff       	jmpq   400c60 <.plt>

0000000000400d10 <alarm@plt>:
  400d10:	ff 25 52 43 20 00    	jmpq   *0x204352(%rip)        # 605068 <alarm@GLIBC_2.2.5>
  400d16:	68 0a 00 00 00       	pushq  $0xa
  400d1b:	e9 40 ff ff ff       	jmpq   400c60 <.plt>

0000000000400d20 <close@plt>:
  400d20:	ff 25 4a 43 20 00    	jmpq   *0x20434a(%rip)        # 605070 <close@GLIBC_2.2.5>
  400d26:	68 0b 00 00 00       	pushq  $0xb
  400d2b:	e9 30 ff ff ff       	jmpq   400c60 <.plt>

0000000000400d30 <read@plt>:
  400d30:	ff 25 42 43 20 00    	jmpq   *0x204342(%rip)        # 605078 <read@GLIBC_2.2.5>
  400d36:	68 0c 00 00 00       	pushq  $0xc
  400d3b:	e9 20 ff ff ff       	jmpq   400c60 <.plt>

0000000000400d40 <signal@plt>:
  400d40:	ff 25 3a 43 20 00    	jmpq   *0x20433a(%rip)        # 605080 <signal@GLIBC_2.2.5>
  400d46:	68 0d 00 00 00       	pushq  $0xd
  400d4b:	e9 10 ff ff ff       	jmpq   400c60 <.plt>

0000000000400d50 <gethostbyname@plt>:
  400d50:	ff 25 32 43 20 00    	jmpq   *0x204332(%rip)        # 605088 <gethostbyname@GLIBC_2.2.5>
  400d56:	68 0e 00 00 00       	pushq  $0xe
  400d5b:	e9 00 ff ff ff       	jmpq   400c60 <.plt>

0000000000400d60 <__memmove_chk@plt>:
  400d60:	ff 25 2a 43 20 00    	jmpq   *0x20432a(%rip)        # 605090 <__memmove_chk@GLIBC_2.3.4>
  400d66:	68 0f 00 00 00       	pushq  $0xf
  400d6b:	e9 f0 fe ff ff       	jmpq   400c60 <.plt>

0000000000400d70 <strtol@plt>:
  400d70:	ff 25 22 43 20 00    	jmpq   *0x204322(%rip)        # 605098 <strtol@GLIBC_2.2.5>
  400d76:	68 10 00 00 00       	pushq  $0x10
  400d7b:	e9 e0 fe ff ff       	jmpq   400c60 <.plt>

0000000000400d80 <memcpy@plt>:
  400d80:	ff 25 1a 43 20 00    	jmpq   *0x20431a(%rip)        # 6050a0 <memcpy@GLIBC_2.14>
  400d86:	68 11 00 00 00       	pushq  $0x11
  400d8b:	e9 d0 fe ff ff       	jmpq   400c60 <.plt>

0000000000400d90 <time@plt>:
  400d90:	ff 25 12 43 20 00    	jmpq   *0x204312(%rip)        # 6050a8 <time@GLIBC_2.2.5>
  400d96:	68 12 00 00 00       	pushq  $0x12
  400d9b:	e9 c0 fe ff ff       	jmpq   400c60 <.plt>

0000000000400da0 <random@plt>:
  400da0:	ff 25 0a 43 20 00    	jmpq   *0x20430a(%rip)        # 6050b0 <random@GLIBC_2.2.5>
  400da6:	68 13 00 00 00       	pushq  $0x13
  400dab:	e9 b0 fe ff ff       	jmpq   400c60 <.plt>

0000000000400db0 <_IO_getc@plt>:
  400db0:	ff 25 02 43 20 00    	jmpq   *0x204302(%rip)        # 6050b8 <_IO_getc@GLIBC_2.2.5>
  400db6:	68 14 00 00 00       	pushq  $0x14
  400dbb:	e9 a0 fe ff ff       	jmpq   400c60 <.plt>

0000000000400dc0 <__isoc99_sscanf@plt>:
  400dc0:	ff 25 fa 42 20 00    	jmpq   *0x2042fa(%rip)        # 6050c0 <__isoc99_sscanf@GLIBC_2.7>
  400dc6:	68 15 00 00 00       	pushq  $0x15
  400dcb:	e9 90 fe ff ff       	jmpq   400c60 <.plt>

0000000000400dd0 <munmap@plt>:
  400dd0:	ff 25 f2 42 20 00    	jmpq   *0x2042f2(%rip)        # 6050c8 <munmap@GLIBC_2.2.5>
  400dd6:	68 16 00 00 00       	pushq  $0x16
  400ddb:	e9 80 fe ff ff       	jmpq   400c60 <.plt>

0000000000400de0 <__printf_chk@plt>:
  400de0:	ff 25 ea 42 20 00    	jmpq   *0x2042ea(%rip)        # 6050d0 <__printf_chk@GLIBC_2.3.4>
  400de6:	68 17 00 00 00       	pushq  $0x17
  400deb:	e9 70 fe ff ff       	jmpq   400c60 <.plt>

0000000000400df0 <fopen@plt>:
  400df0:	ff 25 e2 42 20 00    	jmpq   *0x2042e2(%rip)        # 6050d8 <fopen@GLIBC_2.2.5>
  400df6:	68 18 00 00 00       	pushq  $0x18
  400dfb:	e9 60 fe ff ff       	jmpq   400c60 <.plt>

0000000000400e00 <getopt@plt>:
  400e00:	ff 25 da 42 20 00    	jmpq   *0x2042da(%rip)        # 6050e0 <getopt@GLIBC_2.2.5>
  400e06:	68 19 00 00 00       	pushq  $0x19
  400e0b:	e9 50 fe ff ff       	jmpq   400c60 <.plt>

0000000000400e10 <strtoul@plt>:
  400e10:	ff 25 d2 42 20 00    	jmpq   *0x2042d2(%rip)        # 6050e8 <strtoul@GLIBC_2.2.5>
  400e16:	68 1a 00 00 00       	pushq  $0x1a
  400e1b:	e9 40 fe ff ff       	jmpq   400c60 <.plt>

0000000000400e20 <gethostname@plt>:
  400e20:	ff 25 ca 42 20 00    	jmpq   *0x2042ca(%rip)        # 6050f0 <gethostname@GLIBC_2.2.5>
  400e26:	68 1b 00 00 00       	pushq  $0x1b
  400e2b:	e9 30 fe ff ff       	jmpq   400c60 <.plt>

0000000000400e30 <exit@plt>:
  400e30:	ff 25 c2 42 20 00    	jmpq   *0x2042c2(%rip)        # 6050f8 <exit@GLIBC_2.2.5>
  400e36:	68 1c 00 00 00       	pushq  $0x1c
  400e3b:	e9 20 fe ff ff       	jmpq   400c60 <.plt>

0000000000400e40 <connect@plt>:
  400e40:	ff 25 ba 42 20 00    	jmpq   *0x2042ba(%rip)        # 605100 <connect@GLIBC_2.2.5>
  400e46:	68 1d 00 00 00       	pushq  $0x1d
  400e4b:	e9 10 fe ff ff       	jmpq   400c60 <.plt>

0000000000400e50 <__fprintf_chk@plt>:
  400e50:	ff 25 b2 42 20 00    	jmpq   *0x2042b2(%rip)        # 605108 <__fprintf_chk@GLIBC_2.3.4>
  400e56:	68 1e 00 00 00       	pushq  $0x1e
  400e5b:	e9 00 fe ff ff       	jmpq   400c60 <.plt>

0000000000400e60 <__sprintf_chk@plt>:
  400e60:	ff 25 aa 42 20 00    	jmpq   *0x2042aa(%rip)        # 605110 <__sprintf_chk@GLIBC_2.3.4>
  400e66:	68 1f 00 00 00       	pushq  $0x1f
  400e6b:	e9 f0 fd ff ff       	jmpq   400c60 <.plt>

0000000000400e70 <socket@plt>:
  400e70:	ff 25 a2 42 20 00    	jmpq   *0x2042a2(%rip)        # 605118 <socket@GLIBC_2.2.5>
  400e76:	68 20 00 00 00       	pushq  $0x20
  400e7b:	e9 e0 fd ff ff       	jmpq   400c60 <.plt>

Disassembly of section .text:

0000000000400e80 <_start>:
  400e80:	31 ed                	xor    %ebp,%ebp
  400e82:	49 89 d1             	mov    %rdx,%r9
  400e85:	5e                   	pop    %rsi
  400e86:	48 89 e2             	mov    %rsp,%rdx
  400e89:	48 83 e4 f0          	and    $0xfffffffffffffff0,%rsp
  400e8d:	50                   	push   %rax
  400e8e:	54                   	push   %rsp
  400e8f:	49 c7 c0 10 30 40 00 	mov    $0x403010,%r8
  400e96:	48 c7 c1 a0 2f 40 00 	mov    $0x402fa0,%rcx
  400e9d:	48 c7 c7 73 11 40 00 	mov    $0x401173,%rdi
  400ea4:	ff 15 46 41 20 00    	callq  *0x204146(%rip)        # 604ff0 <__libc_start_main@GLIBC_2.2.5>
  400eaa:	f4                   	hlt    
  400eab:	0f 1f 44 00 00       	nopl   0x0(%rax,%rax,1)

0000000000400eb0 <_dl_relocate_static_pie>:
  400eb0:	f3 c3                	repz retq 
  400eb2:	66 2e 0f 1f 84 00 00 	nopw   %cs:0x0(%rax,%rax,1)
  400eb9:	00 00 00 
  400ebc:	0f 1f 40 00          	nopl   0x0(%rax)

0000000000400ec0 <deregister_tm_clones>:
  400ec0:	55                   	push   %rbp
  400ec1:	b8 90 54 60 00       	mov    $0x605490,%eax
  400ec6:	48 3d 90 54 60 00    	cmp    $0x605490,%rax
  400ecc:	48 89 e5             	mov    %rsp,%rbp
  400ecf:	74 17                	je     400ee8 <deregister_tm_clones+0x28>
  400ed1:	b8 00 00 00 00       	mov    $0x0,%eax
  400ed6:	48 85 c0             	test   %rax,%rax
  400ed9:	74 0d                	je     400ee8 <deregister_tm_clones+0x28>
  400edb:	5d                   	pop    %rbp
  400edc:	bf 90 54 60 00       	mov    $0x605490,%edi
  400ee1:	ff e0                	jmpq   *%rax
  400ee3:	0f 1f 44 00 00       	nopl   0x0(%rax,%rax,1)
  400ee8:	5d                   	pop    %rbp
  400ee9:	c3                   	retq   
  400eea:	66 0f 1f 44 00 00    	nopw   0x0(%rax,%rax,1)

0000000000400ef0 <register_tm_clones>:
  400ef0:	be 90 54 60 00       	mov    $0x605490,%esi
  400ef5:	55                   	push   %rbp
  400ef6:	48 81 ee 90 54 60 00 	sub    $0x605490,%rsi
  400efd:	48 89 e5             	mov    %rsp,%rbp
  400f00:	48 c1 fe 03          	sar    $0x3,%rsi
  400f04:	48 89 f0             	mov    %rsi,%rax
  400f07:	48 c1 e8 3f          	shr    $0x3f,%rax
  400f0b:	48 01 c6             	add    %rax,%rsi
  400f0e:	48 d1 fe             	sar    %rsi
  400f11:	74 15                	je     400f28 <register_tm_clones+0x38>
  400f13:	b8 00 00 00 00       	mov    $0x0,%eax
  400f18:	48 85 c0             	test   %rax,%rax
  400f1b:	74 0b                	je     400f28 <register_tm_clones+0x38>
  400f1d:	5d                   	pop    %rbp
  400f1e:	bf 90 54 60 00       	mov    $0x605490,%edi
  400f23:	ff e0                	jmpq   *%rax
  400f25:	0f 1f 00             	nopl   (%rax)
  400f28:	5d                   	pop    %rbp
  400f29:	c3                   	retq   
  400f2a:	66 0f 1f 44 00 00    	nopw   0x0(%rax,%rax,1)

0000000000400f30 <__do_global_dtors_aux>:
  400f30:	80 3d 91 45 20 00 00 	cmpb   $0x0,0x204591(%rip)        # 6054c8 <completed.7698>
  400f37:	75 17                	jne    400f50 <__do_global_dtors_aux+0x20>
  400f39:	55                   	push   %rbp
  400f3a:	48 89 e5             	mov    %rsp,%rbp
  400f3d:	e8 7e ff ff ff       	callq  400ec0 <deregister_tm_clones>
  400f42:	c6 05 7f 45 20 00 01 	movb   $0x1,0x20457f(%rip)        # 6054c8 <completed.7698>
  400f49:	5d                   	pop    %rbp
  400f4a:	c3                   	retq   
  400f4b:	0f 1f 44 00 00       	nopl   0x0(%rax,%rax,1)
  400f50:	f3 c3                	repz retq 
  400f52:	0f 1f 40 00          	nopl   0x0(%rax)
  400f56:	66 2e 0f 1f 84 00 00 	nopw   %cs:0x0(%rax,%rax,1)
  400f5d:	00 00 00 

0000000000400f60 <frame_dummy>:
  400f60:	55                   	push   %rbp
  400f61:	48 89 e5             	mov    %rsp,%rbp
  400f64:	5d                   	pop    %rbp
  400f65:	eb 89                	jmp    400ef0 <register_tm_clones>

0000000000400f67 <usage>:
  400f67:	48 83 ec 08          	sub    $0x8,%rsp
  400f6b:	48 89 fa             	mov    %rdi,%rdx
  400f6e:	83 3d 93 45 20 00 00 	cmpl   $0x0,0x204593(%rip)        # 605508 <is_checker>
  400f75:	74 46                	je     400fbd <usage+0x56>
  400f77:	be 28 30 40 00       	mov    $0x403028,%esi
  400f7c:	bf 01 00 00 00       	mov    $0x1,%edi
  400f81:	b8 00 00 00 00       	mov    $0x0,%eax
  400f86:	e8 55 fe ff ff       	callq  400de0 <__printf_chk@plt>
  400f8b:	bf 60 30 40 00       	mov    $0x403060,%edi
  400f90:	e8 2b fd ff ff       	callq  400cc0 <puts@plt>
  400f95:	bf d8 31 40 00       	mov    $0x4031d8,%edi
  400f9a:	e8 21 fd ff ff       	callq  400cc0 <puts@plt>
  400f9f:	bf 88 30 40 00       	mov    $0x403088,%edi
  400fa4:	e8 17 fd ff ff       	callq  400cc0 <puts@plt>
  400fa9:	bf f2 31 40 00       	mov    $0x4031f2,%edi
  400fae:	e8 0d fd ff ff       	callq  400cc0 <puts@plt>
  400fb3:	bf 00 00 00 00       	mov    $0x0,%edi
  400fb8:	e8 73 fe ff ff       	callq  400e30 <exit@plt>
  400fbd:	be 0e 32 40 00       	mov    $0x40320e,%esi
  400fc2:	bf 01 00 00 00       	mov    $0x1,%edi
  400fc7:	b8 00 00 00 00       	mov    $0x0,%eax
  400fcc:	e8 0f fe ff ff       	callq  400de0 <__printf_chk@plt>
  400fd1:	bf b0 30 40 00       	mov    $0x4030b0,%edi
  400fd6:	e8 e5 fc ff ff       	callq  400cc0 <puts@plt>
  400fdb:	bf d8 30 40 00       	mov    $0x4030d8,%edi
  400fe0:	e8 db fc ff ff       	callq  400cc0 <puts@plt>
  400fe5:	bf 2c 32 40 00       	mov    $0x40322c,%edi
  400fea:	e8 d1 fc ff ff       	callq  400cc0 <puts@plt>
  400fef:	eb c2                	jmp    400fb3 <usage+0x4c>

0000000000400ff1 <initialize_target>:
  400ff1:	55                   	push   %rbp
  400ff2:	53                   	push   %rbx
  400ff3:	48 81 ec 18 21 00 00 	sub    $0x2118,%rsp
  400ffa:	89 f5                	mov    %esi,%ebp
  400ffc:	64 48 8b 04 25 28 00 	mov    %fs:0x28,%rax
  401003:	00 00 
  401005:	48 89 84 24 08 21 00 	mov    %rax,0x2108(%rsp)
  40100c:	00 
  40100d:	31 c0                	xor    %eax,%eax
  40100f:	89 3d e3 44 20 00    	mov    %edi,0x2044e3(%rip)        # 6054f8 <check_level>
  401015:	8b 3d 2d 41 20 00    	mov    0x20412d(%rip),%edi        # 605148 <target_id>
  40101b:	e8 5b 1f 00 00       	callq  402f7b <gencookie>
  401020:	89 05 de 44 20 00    	mov    %eax,0x2044de(%rip)        # 605504 <cookie>
  401026:	89 c7                	mov    %eax,%edi
  401028:	e8 4e 1f 00 00       	callq  402f7b <gencookie>
  40102d:	89 05 cd 44 20 00    	mov    %eax,0x2044cd(%rip)        # 605500 <authkey>
  401033:	8b 05 0f 41 20 00    	mov    0x20410f(%rip),%eax        # 605148 <target_id>
  401039:	8d 78 01             	lea    0x1(%rax),%edi
  40103c:	e8 4f fc ff ff       	callq  400c90 <srandom@plt>
  401041:	e8 5a fd ff ff       	callq  400da0 <random@plt>
  401046:	89 c7                	mov    %eax,%edi
  401048:	e8 f2 02 00 00       	callq  40133f <scramble>
  40104d:	89 c3                	mov    %eax,%ebx
  40104f:	85 ed                	test   %ebp,%ebp
  401051:	75 54                	jne    4010a7 <initialize_target+0xb6>
  401053:	b8 00 00 00 00       	mov    $0x0,%eax
  401058:	01 d8                	add    %ebx,%eax
  40105a:	0f b7 c0             	movzwl %ax,%eax
  40105d:	8d 04 c5 00 01 00 00 	lea    0x100(,%rax,8),%eax
  401064:	89 c0                	mov    %eax,%eax
  401066:	48 89 05 13 44 20 00 	mov    %rax,0x204413(%rip)        # 605480 <buf_offset>
  40106d:	c6 05 b4 50 20 00 72 	movb   $0x72,0x2050b4(%rip)        # 606128 <target_prefix>
  401074:	83 3d 0d 44 20 00 00 	cmpl   $0x0,0x20440d(%rip)        # 605488 <notify>
  40107b:	74 09                	je     401086 <initialize_target+0x95>
  40107d:	83 3d 84 44 20 00 00 	cmpl   $0x0,0x204484(%rip)        # 605508 <is_checker>
  401084:	74 39                	je     4010bf <initialize_target+0xce>
  401086:	48 8b 84 24 08 21 00 	mov    0x2108(%rsp),%rax
  40108d:	00 
  40108e:	64 48 33 04 25 28 00 	xor    %fs:0x28,%rax
  401095:	00 00 
  401097:	0f 85 d1 00 00 00    	jne    40116e <initialize_target+0x17d>
  40109d:	48 81 c4 18 21 00 00 	add    $0x2118,%rsp
  4010a4:	5b                   	pop    %rbx
  4010a5:	5d                   	pop    %rbp
  4010a6:	c3                   	retq   
  4010a7:	bf 00 00 00 00       	mov    $0x0,%edi
  4010ac:	e8 df fc ff ff       	callq  400d90 <time@plt>
  4010b1:	89 c7                	mov    %eax,%edi
  4010b3:	e8 d8 fb ff ff       	callq  400c90 <srandom@plt>
  4010b8:	e8 e3 fc ff ff       	callq  400da0 <random@plt>
  4010bd:	eb 99                	jmp    401058 <initialize_target+0x67>
  4010bf:	be 00 01 00 00       	mov    $0x100,%esi
  4010c4:	48 89 e7             	mov    %rsp,%rdi
  4010c7:	e8 54 fd ff ff       	callq  400e20 <gethostname@plt>
  4010cc:	89 c5                	mov    %eax,%ebp
  4010ce:	85 c0                	test   %eax,%eax
  4010d0:	75 23                	jne    4010f5 <initialize_target+0x104>
  4010d2:	89 c3                	mov    %eax,%ebx
  4010d4:	48 63 c3             	movslq %ebx,%rax
  4010d7:	48 8b 3c c5 60 51 60 	mov    0x605160(,%rax,8),%rdi
  4010de:	00 
  4010df:	48 85 ff             	test   %rdi,%rdi
  4010e2:	74 2a                	je     40110e <initialize_target+0x11d>
  4010e4:	48 89 e6             	mov    %rsp,%rsi
  4010e7:	e8 84 fb ff ff       	callq  400c70 <strcasecmp@plt>
  4010ec:	85 c0                	test   %eax,%eax
  4010ee:	74 19                	je     401109 <initialize_target+0x118>
  4010f0:	83 c3 01             	add    $0x1,%ebx
  4010f3:	eb df                	jmp    4010d4 <initialize_target+0xe3>
  4010f5:	bf 08 31 40 00       	mov    $0x403108,%edi
  4010fa:	e8 c1 fb ff ff       	callq  400cc0 <puts@plt>
  4010ff:	bf 08 00 00 00       	mov    $0x8,%edi
  401104:	e8 27 fd ff ff       	callq  400e30 <exit@plt>
  401109:	bd 01 00 00 00       	mov    $0x1,%ebp
  40110e:	85 ed                	test   %ebp,%ebp
  401110:	74 3b                	je     40114d <initialize_target+0x15c>
  401112:	48 8d bc 24 00 01 00 	lea    0x100(%rsp),%rdi
  401119:	00 
  40111a:	e8 b1 1b 00 00       	callq  402cd0 <init_driver>
  40111f:	85 c0                	test   %eax,%eax
  401121:	0f 89 5f ff ff ff    	jns    401086 <initialize_target+0x95>
  401127:	48 8d 94 24 00 01 00 	lea    0x100(%rsp),%rdx
  40112e:	00 
  40112f:	be 80 31 40 00       	mov    $0x403180,%esi
  401134:	bf 01 00 00 00       	mov    $0x1,%edi
  401139:	b8 00 00 00 00       	mov    $0x0,%eax
  40113e:	e8 9d fc ff ff       	callq  400de0 <__printf_chk@plt>
  401143:	bf 08 00 00 00       	mov    $0x8,%edi
  401148:	e8 e3 fc ff ff       	callq  400e30 <exit@plt>
  40114d:	48 89 e2             	mov    %rsp,%rdx
  401150:	be 40 31 40 00       	mov    $0x403140,%esi
  401155:	bf 01 00 00 00       	mov    $0x1,%edi
  40115a:	b8 00 00 00 00       	mov    $0x0,%eax
  40115f:	e8 7c fc ff ff       	callq  400de0 <__printf_chk@plt>
  401164:	bf 08 00 00 00       	mov    $0x8,%edi
  401169:	e8 c2 fc ff ff       	callq  400e30 <exit@plt>
  40116e:	e8 6d fb ff ff       	callq  400ce0 <__stack_chk_fail@plt>

0000000000401173 <main>:
  401173:	41 56                	push   %r14
  401175:	41 55                	push   %r13
  401177:	41 54                	push   %r12
  401179:	55                   	push   %rbp
  40117a:	53                   	push   %rbx
  40117b:	41 89 fc             	mov    %edi,%r12d
  40117e:	48 89 f3             	mov    %rsi,%rbx
  401181:	be 0d 20 40 00       	mov    $0x40200d,%esi
  401186:	bf 0b 00 00 00       	mov    $0xb,%edi
  40118b:	e8 b0 fb ff ff       	callq  400d40 <signal@plt>
  401190:	be bf 1f 40 00       	mov    $0x401fbf,%esi
  401195:	bf 07 00 00 00       	mov    $0x7,%edi
  40119a:	e8 a1 fb ff ff       	callq  400d40 <signal@plt>
  40119f:	be 5b 20 40 00       	mov    $0x40205b,%esi
  4011a4:	bf 04 00 00 00       	mov    $0x4,%edi
  4011a9:	e8 92 fb ff ff       	callq  400d40 <signal@plt>
  4011ae:	83 3d 53 43 20 00 00 	cmpl   $0x0,0x204353(%rip)        # 605508 <is_checker>
  4011b5:	75 24                	jne    4011db <main+0x68>
  4011b7:	bd 45 32 40 00       	mov    $0x403245,%ebp
  4011bc:	48 8b 05 dd 42 20 00 	mov    0x2042dd(%rip),%rax        # 6054a0 <stdin@@GLIBC_2.2.5>
  4011c3:	48 89 05 26 43 20 00 	mov    %rax,0x204326(%rip)        # 6054f0 <infile>
  4011ca:	41 bd 00 00 00 00    	mov    $0x0,%r13d
  4011d0:	41 be 00 00 00 00    	mov    $0x0,%r14d
  4011d6:	e9 85 00 00 00       	jmpq   401260 <main+0xed>
  4011db:	be a9 20 40 00       	mov    $0x4020a9,%esi
  4011e0:	bf 0e 00 00 00       	mov    $0xe,%edi
  4011e5:	e8 56 fb ff ff       	callq  400d40 <signal@plt>
  4011ea:	bf 05 00 00 00       	mov    $0x5,%edi
  4011ef:	e8 1c fb ff ff       	callq  400d10 <alarm@plt>
  4011f4:	bd 4a 32 40 00       	mov    $0x40324a,%ebp
  4011f9:	eb c1                	jmp    4011bc <main+0x49>
  4011fb:	48 8b 3b             	mov    (%rbx),%rdi
  4011fe:	e8 64 fd ff ff       	callq  400f67 <usage>
  401203:	be 15 35 40 00       	mov    $0x403515,%esi
  401208:	48 8b 3d 99 42 20 00 	mov    0x204299(%rip),%rdi        # 6054a8 <optarg@@GLIBC_2.2.5>
  40120f:	e8 dc fb ff ff       	callq  400df0 <fopen@plt>
  401214:	48 89 05 d5 42 20 00 	mov    %rax,0x2042d5(%rip)        # 6054f0 <infile>
  40121b:	48 85 c0             	test   %rax,%rax
  40121e:	75 40                	jne    401260 <main+0xed>
  401220:	48 8b 0d 81 42 20 00 	mov    0x204281(%rip),%rcx        # 6054a8 <optarg@@GLIBC_2.2.5>
  401227:	ba 52 32 40 00       	mov    $0x403252,%edx
  40122c:	be 01 00 00 00       	mov    $0x1,%esi
  401231:	48 8b 3d 88 42 20 00 	mov    0x204288(%rip),%rdi        # 6054c0 <stderr@@GLIBC_2.2.5>
  401238:	e8 13 fc ff ff       	callq  400e50 <__fprintf_chk@plt>
  40123d:	b8 01 00 00 00       	mov    $0x1,%eax
  401242:	e9 cc 00 00 00       	jmpq   401313 <main+0x1a0>
  401247:	ba 10 00 00 00       	mov    $0x10,%edx
  40124c:	be 00 00 00 00       	mov    $0x0,%esi
  401251:	48 8b 3d 50 42 20 00 	mov    0x204250(%rip),%rdi        # 6054a8 <optarg@@GLIBC_2.2.5>
  401258:	e8 b3 fb ff ff       	callq  400e10 <strtoul@plt>
  40125d:	41 89 c6             	mov    %eax,%r14d
  401260:	48 89 ea             	mov    %rbp,%rdx
  401263:	48 89 de             	mov    %rbx,%rsi
  401266:	44 89 e7             	mov    %r12d,%edi
  401269:	e8 92 fb ff ff       	callq  400e00 <getopt@plt>
  40126e:	3c ff                	cmp    $0xff,%al
  401270:	74 57                	je     4012c9 <main+0x156>
  401272:	0f be d0             	movsbl %al,%edx
  401275:	83 e8 61             	sub    $0x61,%eax
  401278:	3c 10                	cmp    $0x10,%al
  40127a:	77 31                	ja     4012ad <main+0x13a>
  40127c:	0f b6 c0             	movzbl %al,%eax
  40127f:	ff 24 c5 90 32 40 00 	jmpq   *0x403290(,%rax,8)
  401286:	ba 0a 00 00 00       	mov    $0xa,%edx
  40128b:	be 00 00 00 00       	mov    $0x0,%esi
  401290:	48 8b 3d 11 42 20 00 	mov    0x204211(%rip),%rdi        # 6054a8 <optarg@@GLIBC_2.2.5>
  401297:	e8 d4 fa ff ff       	callq  400d70 <strtol@plt>
  40129c:	41 89 c5             	mov    %eax,%r13d
  40129f:	eb bf                	jmp    401260 <main+0xed>
  4012a1:	c7 05 dd 41 20 00 00 	movl   $0x0,0x2041dd(%rip)        # 605488 <notify>
  4012a8:	00 00 00 
  4012ab:	eb b3                	jmp    401260 <main+0xed>
  4012ad:	be 6f 32 40 00       	mov    $0x40326f,%esi
  4012b2:	bf 01 00 00 00       	mov    $0x1,%edi
  4012b7:	b8 00 00 00 00       	mov    $0x0,%eax
  4012bc:	e8 1f fb ff ff       	callq  400de0 <__printf_chk@plt>
  4012c1:	48 8b 3b             	mov    (%rbx),%rdi
  4012c4:	e8 9e fc ff ff       	callq  400f67 <usage>
  4012c9:	be 01 00 00 00       	mov    $0x1,%esi
  4012ce:	44 89 ef             	mov    %r13d,%edi
  4012d1:	e8 1b fd ff ff       	callq  400ff1 <initialize_target>
  4012d6:	83 3d 2b 42 20 00 00 	cmpl   $0x0,0x20422b(%rip)        # 605508 <is_checker>
  4012dd:	74 09                	je     4012e8 <main+0x175>
  4012df:	44 39 35 1a 42 20 00 	cmp    %r14d,0x20421a(%rip)        # 605500 <authkey>
  4012e6:	75 34                	jne    40131c <main+0x1a9>
  4012e8:	8b 15 16 42 20 00    	mov    0x204216(%rip),%edx        # 605504 <cookie>
  4012ee:	be 82 32 40 00       	mov    $0x403282,%esi
  4012f3:	bf 01 00 00 00       	mov    $0x1,%edi
  4012f8:	b8 00 00 00 00       	mov    $0x0,%eax
  4012fd:	e8 de fa ff ff       	callq  400de0 <__printf_chk@plt>
  401302:	48 8b 3d 77 41 20 00 	mov    0x204177(%rip),%rdi        # 605480 <buf_offset>
  401309:	e8 ee 0d 00 00       	callq  4020fc <launch>
  40130e:	b8 00 00 00 00       	mov    $0x0,%eax
  401313:	5b                   	pop    %rbx
  401314:	5d                   	pop    %rbp
  401315:	41 5c                	pop    %r12
  401317:	41 5d                	pop    %r13
  401319:	41 5e                	pop    %r14
  40131b:	c3                   	retq   
  40131c:	44 89 f2             	mov    %r14d,%edx
  40131f:	be a8 31 40 00       	mov    $0x4031a8,%esi
  401324:	bf 01 00 00 00       	mov    $0x1,%edi
  401329:	b8 00 00 00 00       	mov    $0x0,%eax
  40132e:	e8 ad fa ff ff       	callq  400de0 <__printf_chk@plt>
  401333:	b8 00 00 00 00       	mov    $0x0,%eax
  401338:	e8 0b 09 00 00       	callq  401c48 <check_fail>
  40133d:	eb a9                	jmp    4012e8 <main+0x175>

000000000040133f <scramble>:
  40133f:	48 83 ec 38          	sub    $0x38,%rsp
  401343:	64 48 8b 04 25 28 00 	mov    %fs:0x28,%rax
  40134a:	00 00 
  40134c:	48 89 44 24 28       	mov    %rax,0x28(%rsp)
  401351:	31 c0                	xor    %eax,%eax
  401353:	eb 10                	jmp    401365 <scramble+0x26>
  401355:	69 d0 72 b8 00 00    	imul   $0xb872,%eax,%edx
  40135b:	01 fa                	add    %edi,%edx
  40135d:	89 c1                	mov    %eax,%ecx
  40135f:	89 14 8c             	mov    %edx,(%rsp,%rcx,4)
  401362:	83 c0 01             	add    $0x1,%eax
  401365:	83 f8 09             	cmp    $0x9,%eax
  401368:	76 eb                	jbe    401355 <scramble+0x16>
  40136a:	8b 44 24 1c          	mov    0x1c(%rsp),%eax
  40136e:	69 c0 a5 04 00 00    	imul   $0x4a5,%eax,%eax
  401374:	89 44 24 1c          	mov    %eax,0x1c(%rsp)
  401378:	8b 44 24 0c          	mov    0xc(%rsp),%eax
  40137c:	69 c0 72 52 00 00    	imul   $0x5272,%eax,%eax
  401382:	89 44 24 0c          	mov    %eax,0xc(%rsp)
  401386:	8b 44 24 20          	mov    0x20(%rsp),%eax
  40138a:	69 c0 ec 29 00 00    	imul   $0x29ec,%eax,%eax
  401390:	89 44 24 20          	mov    %eax,0x20(%rsp)
  401394:	8b 44 24 08          	mov    0x8(%rsp),%eax
  401398:	69 c0 ca 01 00 00    	imul   $0x1ca,%eax,%eax
  40139e:	89 44 24 08          	mov    %eax,0x8(%rsp)
  4013a2:	8b 44 24 0c          	mov    0xc(%rsp),%eax
  4013a6:	69 c0 b8 ec 00 00    	imul   $0xecb8,%eax,%eax
  4013ac:	89 44 24 0c          	mov    %eax,0xc(%rsp)
  4013b0:	8b 44 24 24          	mov    0x24(%rsp),%eax
  4013b4:	69 c0 82 14 00 00    	imul   $0x1482,%eax,%eax
  4013ba:	89 44 24 24          	mov    %eax,0x24(%rsp)
  4013be:	8b 44 24 14          	mov    0x14(%rsp),%eax
  4013c2:	69 c0 95 2a 00 00    	imul   $0x2a95,%eax,%eax
  4013c8:	89 44 24 14          	mov    %eax,0x14(%rsp)
  4013cc:	8b 04 24             	mov    (%rsp),%eax
  4013cf:	69 c0 b1 b1 00 00    	imul   $0xb1b1,%eax,%eax
  4013d5:	89 04 24             	mov    %eax,(%rsp)
  4013d8:	8b 44 24 24          	mov    0x24(%rsp),%eax
  4013dc:	69 c0 be 5e 00 00    	imul   $0x5ebe,%eax,%eax
  4013e2:	89 44 24 24          	mov    %eax,0x24(%rsp)
  4013e6:	8b 04 24             	mov    (%rsp),%eax
  4013e9:	69 c0 4d b3 00 00    	imul   $0xb34d,%eax,%eax
  4013ef:	89 04 24             	mov    %eax,(%rsp)
  4013f2:	8b 44 24 14          	mov    0x14(%rsp),%eax
  4013f6:	69 c0 4b ce 00 00    	imul   $0xce4b,%eax,%eax
  4013fc:	89 44 24 14          	mov    %eax,0x14(%rsp)
  401400:	8b 44 24 10          	mov    0x10(%rsp),%eax
  401404:	69 c0 c7 16 00 00    	imul   $0x16c7,%eax,%eax
  40140a:	89 44 24 10          	mov    %eax,0x10(%rsp)
  40140e:	8b 44 24 0c          	mov    0xc(%rsp),%eax
  401412:	69 c0 f4 13 00 00    	imul   $0x13f4,%eax,%eax
  401418:	89 44 24 0c          	mov    %eax,0xc(%rsp)
  40141c:	8b 44 24 24          	mov    0x24(%rsp),%eax
  401420:	69 c0 1d 11 00 00    	imul   $0x111d,%eax,%eax
  401426:	89 44 24 24          	mov    %eax,0x24(%rsp)
  40142a:	8b 44 24 10          	mov    0x10(%rsp),%eax
  40142e:	69 c0 40 2c 00 00    	imul   $0x2c40,%eax,%eax
  401434:	89 44 24 10          	mov    %eax,0x10(%rsp)
  401438:	8b 44 24 1c          	mov    0x1c(%rsp),%eax
  40143c:	69 c0 8f 78 00 00    	imul   $0x788f,%eax,%eax
  401442:	89 44 24 1c          	mov    %eax,0x1c(%rsp)
  401446:	8b 44 24 18          	mov    0x18(%rsp),%eax
  40144a:	69 c0 77 a8 00 00    	imul   $0xa877,%eax,%eax
  401450:	89 44 24 18          	mov    %eax,0x18(%rsp)
  401454:	8b 44 24 14          	mov    0x14(%rsp),%eax
  401458:	69 c0 82 8d 00 00    	imul   $0x8d82,%eax,%eax
  40145e:	89 44 24 14          	mov    %eax,0x14(%rsp)
  401462:	8b 44 24 10          	mov    0x10(%rsp),%eax
  401466:	69 c0 e8 cb 00 00    	imul   $0xcbe8,%eax,%eax
  40146c:	89 44 24 10          	mov    %eax,0x10(%rsp)
  401470:	8b 44 24 0c          	mov    0xc(%rsp),%eax
  401474:	69 c0 87 b4 00 00    	imul   $0xb487,%eax,%eax
  40147a:	89 44 24 0c          	mov    %eax,0xc(%rsp)
  40147e:	8b 44 24 14          	mov    0x14(%rsp),%eax
  401482:	69 c0 cf 3b 00 00    	imul   $0x3bcf,%eax,%eax
  401488:	89 44 24 14          	mov    %eax,0x14(%rsp)
  40148c:	8b 44 24 24          	mov    0x24(%rsp),%eax
  401490:	69 c0 f2 6e 00 00    	imul   $0x6ef2,%eax,%eax
  401496:	89 44 24 24          	mov    %eax,0x24(%rsp)
  40149a:	8b 44 24 0c          	mov    0xc(%rsp),%eax
  40149e:	69 c0 d8 ab 00 00    	imul   $0xabd8,%eax,%eax
  4014a4:	89 44 24 0c          	mov    %eax,0xc(%rsp)
  4014a8:	8b 44 24 24          	mov    0x24(%rsp),%eax
  4014ac:	69 c0 39 b6 00 00    	imul   $0xb639,%eax,%eax
  4014b2:	89 44 24 24          	mov    %eax,0x24(%rsp)
  4014b6:	8b 44 24 10          	mov    0x10(%rsp),%eax
  4014ba:	69 c0 df 6d 00 00    	imul   $0x6ddf,%eax,%eax
  4014c0:	89 44 24 10          	mov    %eax,0x10(%rsp)
  4014c4:	8b 44 24 18          	mov    0x18(%rsp),%eax
  4014c8:	69 c0 d7 d5 00 00    	imul   $0xd5d7,%eax,%eax
  4014ce:	89 44 24 18          	mov    %eax,0x18(%rsp)
  4014d2:	8b 44 24 08          	mov    0x8(%rsp),%eax
  4014d6:	69 c0 bb 2f 00 00    	imul   $0x2fbb,%eax,%eax
  4014dc:	89 44 24 08          	mov    %eax,0x8(%rsp)
  4014e0:	8b 44 24 18          	mov    0x18(%rsp),%eax
  4014e4:	69 c0 15 fd 00 00    	imul   $0xfd15,%eax,%eax
  4014ea:	89 44 24 18          	mov    %eax,0x18(%rsp)
  4014ee:	8b 44 24 08          	mov    0x8(%rsp),%eax
  4014f2:	69 c0 ad 37 00 00    	imul   $0x37ad,%eax,%eax
  4014f8:	89 44 24 08          	mov    %eax,0x8(%rsp)
  4014fc:	8b 44 24 1c          	mov    0x1c(%rsp),%eax
  401500:	69 c0 cd 03 00 00    	imul   $0x3cd,%eax,%eax
  401506:	89 44 24 1c          	mov    %eax,0x1c(%rsp)
  40150a:	8b 04 24             	mov    (%rsp),%eax
  40150d:	69 c0 52 f7 00 00    	imul   $0xf752,%eax,%eax
  401513:	89 04 24             	mov    %eax,(%rsp)
  401516:	8b 44 24 04          	mov    0x4(%rsp),%eax
  40151a:	69 c0 d2 94 00 00    	imul   $0x94d2,%eax,%eax
  401520:	89 44 24 04          	mov    %eax,0x4(%rsp)
  401524:	8b 44 24 1c          	mov    0x1c(%rsp),%eax
  401528:	69 c0 5e 47 00 00    	imul   $0x475e,%eax,%eax
  40152e:	89 44 24 1c          	mov    %eax,0x1c(%rsp)
  401532:	8b 44 24 14          	mov    0x14(%rsp),%eax
  401536:	69 c0 2c 72 00 00    	imul   $0x722c,%eax,%eax
  40153c:	89 44 24 14          	mov    %eax,0x14(%rsp)
  401540:	8b 44 24 14          	mov    0x14(%rsp),%eax
  401544:	69 c0 a1 b1 00 00    	imul   $0xb1a1,%eax,%eax
  40154a:	89 44 24 14          	mov    %eax,0x14(%rsp)
  40154e:	8b 44 24 0c          	mov    0xc(%rsp),%eax
  401552:	69 c0 e8 cb 00 00    	imul   $0xcbe8,%eax,%eax
  401558:	89 44 24 0c          	mov    %eax,0xc(%rsp)
  40155c:	8b 44 24 10          	mov    0x10(%rsp),%eax
  401560:	69 c0 bc ef 00 00    	imul   $0xefbc,%eax,%eax
  401566:	89 44 24 10          	mov    %eax,0x10(%rsp)
  40156a:	8b 44 24 14          	mov    0x14(%rsp),%eax
  40156e:	69 c0 d6 53 00 00    	imul   $0x53d6,%eax,%eax
  401574:	89 44 24 14          	mov    %eax,0x14(%rsp)
  401578:	8b 44 24 04          	mov    0x4(%rsp),%eax
  40157c:	69 c0 7e 5b 00 00    	imul   $0x5b7e,%eax,%eax
  401582:	89 44 24 04          	mov    %eax,0x4(%rsp)
  401586:	8b 44 24 14          	mov    0x14(%rsp),%eax
  40158a:	69 c0 2c a6 00 00    	imul   $0xa62c,%eax,%eax
  401590:	89 44 24 14          	mov    %eax,0x14(%rsp)
  401594:	8b 44 24 1c          	mov    0x1c(%rsp),%eax
  401598:	69 c0 95 73 00 00    	imul   $0x7395,%eax,%eax
  40159e:	89 44 24 1c          	mov    %eax,0x1c(%rsp)
  4015a2:	8b 44 24 24          	mov    0x24(%rsp),%eax
  4015a6:	69 c0 87 05 00 00    	imul   $0x587,%eax,%eax
  4015ac:	89 44 24 24          	mov    %eax,0x24(%rsp)
  4015b0:	8b 44 24 18          	mov    0x18(%rsp),%eax
  4015b4:	69 c0 a2 68 00 00    	imul   $0x68a2,%eax,%eax
  4015ba:	89 44 24 18          	mov    %eax,0x18(%rsp)
  4015be:	8b 44 24 1c          	mov    0x1c(%rsp),%eax
  4015c2:	69 c0 01 e7 00 00    	imul   $0xe701,%eax,%eax
  4015c8:	89 44 24 1c          	mov    %eax,0x1c(%rsp)
  4015cc:	8b 04 24             	mov    (%rsp),%eax
  4015cf:	69 c0 ce 10 00 00    	imul   $0x10ce,%eax,%eax
  4015d5:	89 04 24             	mov    %eax,(%rsp)
  4015d8:	8b 44 24 20          	mov    0x20(%rsp),%eax
  4015dc:	69 c0 3d 04 00 00    	imul   $0x43d,%eax,%eax
  4015e2:	89 44 24 20          	mov    %eax,0x20(%rsp)
  4015e6:	8b 44 24 0c          	mov    0xc(%rsp),%eax
  4015ea:	69 c0 2a 67 00 00    	imul   $0x672a,%eax,%eax
  4015f0:	89 44 24 0c          	mov    %eax,0xc(%rsp)
  4015f4:	8b 44 24 04          	mov    0x4(%rsp),%eax
  4015f8:	69 c0 e9 a7 00 00    	imul   $0xa7e9,%eax,%eax
  4015fe:	89 44 24 04          	mov    %eax,0x4(%rsp)
  401602:	8b 44 24 24          	mov    0x24(%rsp),%eax
  401606:	69 c0 64 bb 00 00    	imul   $0xbb64,%eax,%eax
  40160c:	89 44 24 24          	mov    %eax,0x24(%rsp)
  401610:	8b 44 24 18          	mov    0x18(%rsp),%eax
  401614:	69 c0 d0 c1 00 00    	imul   $0xc1d0,%eax,%eax
  40161a:	89 44 24 18          	mov    %eax,0x18(%rsp)
  40161e:	8b 44 24 18          	mov    0x18(%rsp),%eax
  401622:	69 c0 c8 40 00 00    	imul   $0x40c8,%eax,%eax
  401628:	89 44 24 18          	mov    %eax,0x18(%rsp)
  40162c:	8b 44 24 24          	mov    0x24(%rsp),%eax
  401630:	69 c0 77 5a 00 00    	imul   $0x5a77,%eax,%eax
  401636:	89 44 24 24          	mov    %eax,0x24(%rsp)
  40163a:	8b 44 24 04          	mov    0x4(%rsp),%eax
  40163e:	69 c0 92 c8 00 00    	imul   $0xc892,%eax,%eax
  401644:	89 44 24 04          	mov    %eax,0x4(%rsp)
  401648:	8b 44 24 08          	mov    0x8(%rsp),%eax
  40164c:	69 c0 1a cc 00 00    	imul   $0xcc1a,%eax,%eax
  401652:	89 44 24 08          	mov    %eax,0x8(%rsp)
  401656:	8b 04 24             	mov    (%rsp),%eax
  401659:	69 c0 5c b8 00 00    	imul   $0xb85c,%eax,%eax
  40165f:	89 04 24             	mov    %eax,(%rsp)
  401662:	8b 44 24 04          	mov    0x4(%rsp),%eax
  401666:	69 c0 6d ed 00 00    	imul   $0xed6d,%eax,%eax
  40166c:	89 44 24 04          	mov    %eax,0x4(%rsp)
  401670:	8b 44 24 04          	mov    0x4(%rsp),%eax
  401674:	69 c0 49 ee 00 00    	imul   $0xee49,%eax,%eax
  40167a:	89 44 24 04          	mov    %eax,0x4(%rsp)
  40167e:	8b 44 24 24          	mov    0x24(%rsp),%eax
  401682:	69 c0 42 cf 00 00    	imul   $0xcf42,%eax,%eax
  401688:	89 44 24 24          	mov    %eax,0x24(%rsp)
  40168c:	8b 44 24 1c          	mov    0x1c(%rsp),%eax
  401690:	69 c0 91 f5 00 00    	imul   $0xf591,%eax,%eax
  401696:	89 44 24 1c          	mov    %eax,0x1c(%rsp)
  40169a:	8b 44 24 20          	mov    0x20(%rsp),%eax
  40169e:	69 c0 3b f7 00 00    	imul   $0xf73b,%eax,%eax
  4016a4:	89 44 24 20          	mov    %eax,0x20(%rsp)
  4016a8:	8b 44 24 18          	mov    0x18(%rsp),%eax
  4016ac:	69 c0 11 a1 00 00    	imul   $0xa111,%eax,%eax
  4016b2:	89 44 24 18          	mov    %eax,0x18(%rsp)
  4016b6:	8b 44 24 08          	mov    0x8(%rsp),%eax
  4016ba:	69 c0 80 0e 00 00    	imul   $0xe80,%eax,%eax
  4016c0:	89 44 24 08          	mov    %eax,0x8(%rsp)
  4016c4:	8b 44 24 20          	mov    0x20(%rsp),%eax
  4016c8:	69 c0 87 94 00 00    	imul   $0x9487,%eax,%eax
  4016ce:	89 44 24 20          	mov    %eax,0x20(%rsp)
  4016d2:	8b 44 24 10          	mov    0x10(%rsp),%eax
  4016d6:	69 c0 c5 b6 00 00    	imul   $0xb6c5,%eax,%eax
  4016dc:	89 44 24 10          	mov    %eax,0x10(%rsp)
  4016e0:	8b 44 24 24          	mov    0x24(%rsp),%eax
  4016e4:	69 c0 7f d0 00 00    	imul   $0xd07f,%eax,%eax
  4016ea:	89 44 24 24          	mov    %eax,0x24(%rsp)
  4016ee:	8b 44 24 10          	mov    0x10(%rsp),%eax
  4016f2:	69 c0 f2 bc 00 00    	imul   $0xbcf2,%eax,%eax
  4016f8:	89 44 24 10          	mov    %eax,0x10(%rsp)
  4016fc:	8b 44 24 04          	mov    0x4(%rsp),%eax
  401700:	69 c0 4d 06 00 00    	imul   $0x64d,%eax,%eax
  401706:	89 44 24 04          	mov    %eax,0x4(%rsp)
  40170a:	8b 44 24 24          	mov    0x24(%rsp),%eax
  40170e:	69 c0 cd 41 00 00    	imul   $0x41cd,%eax,%eax
  401714:	89 44 24 24          	mov    %eax,0x24(%rsp)
  401718:	8b 44 24 04          	mov    0x4(%rsp),%eax
  40171c:	69 c0 b6 c5 00 00    	imul   $0xc5b6,%eax,%eax
  401722:	89 44 24 04          	mov    %eax,0x4(%rsp)
  401726:	8b 44 24 20          	mov    0x20(%rsp),%eax
  40172a:	69 c0 f0 f2 00 00    	imul   $0xf2f0,%eax,%eax
  401730:	89 44 24 20          	mov    %eax,0x20(%rsp)
  401734:	8b 44 24 04          	mov    0x4(%rsp),%eax
  401738:	69 c0 2d 80 00 00    	imul   $0x802d,%eax,%eax
  40173e:	89 44 24 04          	mov    %eax,0x4(%rsp)
  401742:	8b 44 24 08          	mov    0x8(%rsp),%eax
  401746:	69 c0 03 aa 00 00    	imul   $0xaa03,%eax,%eax
  40174c:	89 44 24 08          	mov    %eax,0x8(%rsp)
  401750:	8b 44 24 08          	mov    0x8(%rsp),%eax
  401754:	69 c0 52 d3 00 00    	imul   $0xd352,%eax,%eax
  40175a:	89 44 24 08          	mov    %eax,0x8(%rsp)
  40175e:	8b 44 24 08          	mov    0x8(%rsp),%eax
  401762:	69 c0 62 c5 00 00    	imul   $0xc562,%eax,%eax
  401768:	89 44 24 08          	mov    %eax,0x8(%rsp)
  40176c:	8b 44 24 0c          	mov    0xc(%rsp),%eax
  401770:	69 c0 89 2f 00 00    	imul   $0x2f89,%eax,%eax
  401776:	89 44 24 0c          	mov    %eax,0xc(%rsp)
  40177a:	8b 44 24 04          	mov    0x4(%rsp),%eax
  40177e:	69 c0 44 cf 00 00    	imul   $0xcf44,%eax,%eax
  401784:	89 44 24 04          	mov    %eax,0x4(%rsp)
  401788:	8b 44 24 20          	mov    0x20(%rsp),%eax
  40178c:	69 c0 15 b8 00 00    	imul   $0xb815,%eax,%eax
  401792:	89 44 24 20          	mov    %eax,0x20(%rsp)
  401796:	8b 44 24 10          	mov    0x10(%rsp),%eax
  40179a:	69 c0 d7 d8 00 00    	imul   $0xd8d7,%eax,%eax
  4017a0:	89 44 24 10          	mov    %eax,0x10(%rsp)
  4017a4:	8b 44 24 18          	mov    0x18(%rsp),%eax
  4017a8:	69 c0 2e 94 00 00    	imul   $0x942e,%eax,%eax
  4017ae:	89 44 24 18          	mov    %eax,0x18(%rsp)
  4017b2:	8b 44 24 20          	mov    0x20(%rsp),%eax
  4017b6:	69 c0 88 9c 00 00    	imul   $0x9c88,%eax,%eax
  4017bc:	89 44 24 20          	mov    %eax,0x20(%rsp)
  4017c0:	8b 04 24             	mov    (%rsp),%eax
  4017c3:	69 c0 31 08 00 00    	imul   $0x831,%eax,%eax
  4017c9:	89 04 24             	mov    %eax,(%rsp)
  4017cc:	8b 44 24 10          	mov    0x10(%rsp),%eax
  4017d0:	69 c0 f6 75 00 00    	imul   $0x75f6,%eax,%eax
  4017d6:	89 44 24 10          	mov    %eax,0x10(%rsp)
  4017da:	8b 44 24 24          	mov    0x24(%rsp),%eax
  4017de:	69 c0 e3 70 00 00    	imul   $0x70e3,%eax,%eax
  4017e4:	89 44 24 24          	mov    %eax,0x24(%rsp)
  4017e8:	8b 44 24 14          	mov    0x14(%rsp),%eax
  4017ec:	69 c0 5d dd 00 00    	imul   $0xdd5d,%eax,%eax
  4017f2:	89 44 24 14          	mov    %eax,0x14(%rsp)
  4017f6:	8b 44 24 24          	mov    0x24(%rsp),%eax
  4017fa:	69 c0 aa c5 00 00    	imul   $0xc5aa,%eax,%eax
  401800:	89 44 24 24          	mov    %eax,0x24(%rsp)
  401804:	8b 44 24 0c          	mov    0xc(%rsp),%eax
  401808:	69 c0 ab b4 00 00    	imul   $0xb4ab,%eax,%eax
  40180e:	89 44 24 0c          	mov    %eax,0xc(%rsp)
  401812:	8b 44 24 14          	mov    0x14(%rsp),%eax
  401816:	69 c0 ab b0 00 00    	imul   $0xb0ab,%eax,%eax
  40181c:	89 44 24 14          	mov    %eax,0x14(%rsp)
  401820:	8b 44 24 1c          	mov    0x1c(%rsp),%eax
  401824:	69 c0 4d b4 00 00    	imul   $0xb44d,%eax,%eax
  40182a:	89 44 24 1c          	mov    %eax,0x1c(%rsp)
  40182e:	8b 44 24 04          	mov    0x4(%rsp),%eax
  401832:	69 c0 f5 d7 00 00    	imul   $0xd7f5,%eax,%eax
  401838:	89 44 24 04          	mov    %eax,0x4(%rsp)
  40183c:	8b 04 24             	mov    (%rsp),%eax
  40183f:	69 c0 e1 4c 00 00    	imul   $0x4ce1,%eax,%eax
  401845:	89 04 24             	mov    %eax,(%rsp)
  401848:	8b 44 24 0c          	mov    0xc(%rsp),%eax
  40184c:	69 c0 4c 36 00 00    	imul   $0x364c,%eax,%eax
  401852:	89 44 24 0c          	mov    %eax,0xc(%rsp)
  401856:	8b 44 24 1c          	mov    0x1c(%rsp),%eax
  40185a:	69 c0 19 d8 00 00    	imul   $0xd819,%eax,%eax
  401860:	89 44 24 1c          	mov    %eax,0x1c(%rsp)
  401864:	8b 44 24 18          	mov    0x18(%rsp),%eax
  401868:	69 c0 ea f9 00 00    	imul   $0xf9ea,%eax,%eax
  40186e:	89 44 24 18          	mov    %eax,0x18(%rsp)
  401872:	8b 44 24 10          	mov    0x10(%rsp),%eax
  401876:	69 c0 fe 3a 00 00    	imul   $0x3afe,%eax,%eax
  40187c:	89 44 24 10          	mov    %eax,0x10(%rsp)
  401880:	8b 44 24 08          	mov    0x8(%rsp),%eax
  401884:	69 c0 8c 40 00 00    	imul   $0x408c,%eax,%eax
  40188a:	89 44 24 08          	mov    %eax,0x8(%rsp)
  40188e:	8b 44 24 04          	mov    0x4(%rsp),%eax
  401892:	69 c0 c6 f2 00 00    	imul   $0xf2c6,%eax,%eax
  401898:	89 44 24 04          	mov    %eax,0x4(%rsp)
  40189c:	ba 00 00 00 00       	mov    $0x0,%edx
  4018a1:	b8 00 00 00 00       	mov    $0x0,%eax
  4018a6:	eb 0a                	jmp    4018b2 <scramble+0x573>
  4018a8:	89 d1                	mov    %edx,%ecx
  4018aa:	8b 0c 8c             	mov    (%rsp,%rcx,4),%ecx
  4018ad:	01 c8                	add    %ecx,%eax
  4018af:	83 c2 01             	add    $0x1,%edx
  4018b2:	83 fa 09             	cmp    $0x9,%edx
  4018b5:	76 f1                	jbe    4018a8 <scramble+0x569>
  4018b7:	48 8b 74 24 28       	mov    0x28(%rsp),%rsi
  4018bc:	64 48 33 34 25 28 00 	xor    %fs:0x28,%rsi
  4018c3:	00 00 
  4018c5:	75 05                	jne    4018cc <scramble+0x58d>
  4018c7:	48 83 c4 38          	add    $0x38,%rsp
  4018cb:	c3                   	retq   
  4018cc:	e8 0f f4 ff ff       	callq  400ce0 <__stack_chk_fail@plt>

00000000004018d1 <getbuf>:
  4018d1:	48 83 ec 38          	sub    $0x38,%rsp
  4018d5:	48 89 e7             	mov    %rsp,%rdi
  4018d8:	e8 a0 03 00 00       	callq  401c7d <Gets>
  4018dd:	b8 01 00 00 00       	mov    $0x1,%eax
  4018e2:	48 83 c4 38          	add    $0x38,%rsp
  4018e6:	c3                   	retq   

00000000004018e7 <touch1>:
  4018e7:	48 83 ec 08          	sub    $0x8,%rsp
  4018eb:	c7 05 07 3c 20 00 01 	movl   $0x1,0x203c07(%rip)        # 6054fc <vlevel>
  4018f2:	00 00 00 
  4018f5:	bf 6a 33 40 00       	mov    $0x40336a,%edi
  4018fa:	e8 c1 f3 ff ff       	callq  400cc0 <puts@plt>
  4018ff:	bf 01 00 00 00       	mov    $0x1,%edi
  401904:	e8 c9 05 00 00       	callq  401ed2 <validate>
  401909:	bf 00 00 00 00       	mov    $0x0,%edi
  40190e:	e8 1d f5 ff ff       	callq  400e30 <exit@plt>

0000000000401913 <touch2>:
  401913:	48 83 ec 08          	sub    $0x8,%rsp
  401917:	89 fa                	mov    %edi,%edx
  401919:	c7 05 d9 3b 20 00 02 	movl   $0x2,0x203bd9(%rip)        # 6054fc <vlevel>
  401920:	00 00 00 
  401923:	39 3d db 3b 20 00    	cmp    %edi,0x203bdb(%rip)        # 605504 <cookie>
  401929:	74 28                	je     401953 <touch2+0x40>
  40192b:	be b8 33 40 00       	mov    $0x4033b8,%esi
  401930:	bf 01 00 00 00       	mov    $0x1,%edi
  401935:	b8 00 00 00 00       	mov    $0x0,%eax
  40193a:	e8 a1 f4 ff ff       	callq  400de0 <__printf_chk@plt>
  40193f:	bf 02 00 00 00       	mov    $0x2,%edi
  401944:	e8 4e 06 00 00       	callq  401f97 <fail>
  401949:	bf 00 00 00 00       	mov    $0x0,%edi
  40194e:	e8 dd f4 ff ff       	callq  400e30 <exit@plt>
  401953:	be 90 33 40 00       	mov    $0x403390,%esi
  401958:	bf 01 00 00 00       	mov    $0x1,%edi
  40195d:	b8 00 00 00 00       	mov    $0x0,%eax
  401962:	e8 79 f4 ff ff       	callq  400de0 <__printf_chk@plt>
  401967:	bf 02 00 00 00       	mov    $0x2,%edi
  40196c:	e8 61 05 00 00       	callq  401ed2 <validate>
  401971:	eb d6                	jmp    401949 <touch2+0x36>

0000000000401973 <hexmatch>:
  401973:	41 54                	push   %r12
  401975:	55                   	push   %rbp
  401976:	53                   	push   %rbx
  401977:	48 83 c4 80          	add    $0xffffffffffffff80,%rsp
  40197b:	89 fd                	mov    %edi,%ebp
  40197d:	48 89 f3             	mov    %rsi,%rbx
  401980:	64 48 8b 04 25 28 00 	mov    %fs:0x28,%rax
  401987:	00 00 
  401989:	48 89 44 24 78       	mov    %rax,0x78(%rsp)
  40198e:	31 c0                	xor    %eax,%eax
  401990:	e8 0b f4 ff ff       	callq  400da0 <random@plt>
  401995:	48 89 c1             	mov    %rax,%rcx
  401998:	48 ba 0b d7 a3 70 3d 	movabs $0xa3d70a3d70a3d70b,%rdx
  40199f:	0a d7 a3 
  4019a2:	48 f7 ea             	imul   %rdx
  4019a5:	48 01 ca             	add    %rcx,%rdx
  4019a8:	48 c1 fa 06          	sar    $0x6,%rdx
  4019ac:	48 89 c8             	mov    %rcx,%rax
  4019af:	48 c1 f8 3f          	sar    $0x3f,%rax
  4019b3:	48 29 c2             	sub    %rax,%rdx
  4019b6:	48 8d 04 92          	lea    (%rdx,%rdx,4),%rax
  4019ba:	48 8d 14 80          	lea    (%rax,%rax,4),%rdx
  4019be:	48 8d 04 95 00 00 00 	lea    0x0(,%rdx,4),%rax
  4019c5:	00 
  4019c6:	48 29 c1             	sub    %rax,%rcx
  4019c9:	4c 8d 24 0c          	lea    (%rsp,%rcx,1),%r12
  4019cd:	41 89 e8             	mov    %ebp,%r8d
  4019d0:	b9 87 33 40 00       	mov    $0x403387,%ecx
  4019d5:	48 c7 c2 ff ff ff ff 	mov    $0xffffffffffffffff,%rdx
  4019dc:	be 01 00 00 00       	mov    $0x1,%esi
  4019e1:	4c 89 e7             	mov    %r12,%rdi
  4019e4:	b8 00 00 00 00       	mov    $0x0,%eax
  4019e9:	e8 72 f4 ff ff       	callq  400e60 <__sprintf_chk@plt>
  4019ee:	ba 09 00 00 00       	mov    $0x9,%edx
  4019f3:	4c 89 e6             	mov    %r12,%rsi
  4019f6:	48 89 df             	mov    %rbx,%rdi
  4019f9:	e8 a2 f2 ff ff       	callq  400ca0 <strncmp@plt>
  4019fe:	85 c0                	test   %eax,%eax
  401a00:	0f 94 c0             	sete   %al
  401a03:	48 8b 5c 24 78       	mov    0x78(%rsp),%rbx
  401a08:	64 48 33 1c 25 28 00 	xor    %fs:0x28,%rbx
  401a0f:	00 00 
  401a11:	75 0c                	jne    401a1f <hexmatch+0xac>
  401a13:	0f b6 c0             	movzbl %al,%eax
  401a16:	48 83 ec 80          	sub    $0xffffffffffffff80,%rsp
  401a1a:	5b                   	pop    %rbx
  401a1b:	5d                   	pop    %rbp
  401a1c:	41 5c                	pop    %r12
  401a1e:	c3                   	retq   
  401a1f:	e8 bc f2 ff ff       	callq  400ce0 <__stack_chk_fail@plt>

0000000000401a24 <touch3>:
  401a24:	53                   	push   %rbx
  401a25:	48 89 fb             	mov    %rdi,%rbx
  401a28:	c7 05 ca 3a 20 00 03 	movl   $0x3,0x203aca(%rip)        # 6054fc <vlevel>
  401a2f:	00 00 00 
  401a32:	48 89 fe             	mov    %rdi,%rsi
  401a35:	8b 3d c9 3a 20 00    	mov    0x203ac9(%rip),%edi        # 605504 <cookie>
  401a3b:	e8 33 ff ff ff       	callq  401973 <hexmatch>
  401a40:	85 c0                	test   %eax,%eax
  401a42:	74 2b                	je     401a6f <touch3+0x4b>
  401a44:	48 89 da             	mov    %rbx,%rdx
  401a47:	be e0 33 40 00       	mov    $0x4033e0,%esi
  401a4c:	bf 01 00 00 00       	mov    $0x1,%edi
  401a51:	b8 00 00 00 00       	mov    $0x0,%eax
  401a56:	e8 85 f3 ff ff       	callq  400de0 <__printf_chk@plt>
  401a5b:	bf 03 00 00 00       	mov    $0x3,%edi
  401a60:	e8 6d 04 00 00       	callq  401ed2 <validate>
  401a65:	bf 00 00 00 00       	mov    $0x0,%edi
  401a6a:	e8 c1 f3 ff ff       	callq  400e30 <exit@plt>
  401a6f:	48 89 da             	mov    %rbx,%rdx
  401a72:	be 08 34 40 00       	mov    $0x403408,%esi
  401a77:	bf 01 00 00 00       	mov    $0x1,%edi
  401a7c:	b8 00 00 00 00       	mov    $0x0,%eax
  401a81:	e8 5a f3 ff ff       	callq  400de0 <__printf_chk@plt>
  401a86:	bf 03 00 00 00       	mov    $0x3,%edi
  401a8b:	e8 07 05 00 00       	callq  401f97 <fail>
  401a90:	eb d3                	jmp    401a65 <touch3+0x41>

0000000000401a92 <test>:
  401a92:	48 83 ec 08          	sub    $0x8,%rsp
  401a96:	b8 00 00 00 00       	mov    $0x0,%eax
  401a9b:	e8 31 fe ff ff       	callq  4018d1 <getbuf>
  401aa0:	89 c2                	mov    %eax,%edx
  401aa2:	be 30 34 40 00       	mov    $0x403430,%esi
  401aa7:	bf 01 00 00 00       	mov    $0x1,%edi
  401aac:	b8 00 00 00 00       	mov    $0x0,%eax
  401ab1:	e8 2a f3 ff ff       	callq  400de0 <__printf_chk@plt>
  401ab6:	48 83 c4 08          	add    $0x8,%rsp
  401aba:	c3                   	retq   

0000000000401abb <start_farm>:
  401abb:	b8 01 00 00 00       	mov    $0x1,%eax
  401ac0:	c3                   	retq   

0000000000401ac1 <setval_197>:
  401ac1:	c7 07 58 90 c1 15    	movl   $0x15c19058,(%rdi)
  401ac7:	c3                   	retq   

0000000000401ac8 <setval_210>:
  401ac8:	c7 07 d4 48 89 c7    	movl   $0xc78948d4,(%rdi)
  401ace:	c3                   	retq   

0000000000401acf <getval_416>:
  401acf:	b8 7d 58 90 90       	mov    $0x9090587d,%eax
  401ad4:	c3                   	retq   

0000000000401ad5 <setval_108>:
  401ad5:	c7 07 49 48 89 c7    	movl   $0xc7894849,(%rdi)
  401adb:	c3                   	retq   

0000000000401adc <getval_266>:
  401adc:	b8 4a 89 c7 c3       	mov    $0xc3c7894a,%eax
  401ae1:	c3                   	retq   

0000000000401ae2 <getval_462>:
  401ae2:	b8 40 89 c7 90       	mov    $0x90c78940,%eax
  401ae7:	c3                   	retq   

0000000000401ae8 <setval_239>:
  401ae8:	c7 07 d5 58 90 c3    	movl   $0xc39058d5,(%rdi)
  401aee:	c3                   	retq   

0000000000401aef <setval_414>:
  401aef:	c7 07 07 78 c3 7f    	movl   $0x7fc37807,(%rdi)
  401af5:	c3                   	retq   

0000000000401af6 <mid_farm>:
  401af6:	b8 01 00 00 00       	mov    $0x1,%eax
  401afb:	c3                   	retq   

0000000000401afc <add_xy>:
  401afc:	48 8d 04 37          	lea    (%rdi,%rsi,1),%rax
  401b00:	c3                   	retq   

0000000000401b01 <getval_159>:
  401b01:	b8 89 ca 48 c0       	mov    $0xc048ca89,%eax
  401b06:	c3                   	retq   

0000000000401b07 <addval_436>:
  401b07:	8d 87 89 c1 c4 db    	lea    -0x243b3e77(%rdi),%eax
  401b0d:	c3                   	retq   

0000000000401b0e <addval_398>:
  401b0e:	8d 87 89 c1 a4 c0    	lea    -0x3f5b3e77(%rdi),%eax
  401b14:	c3                   	retq   

0000000000401b15 <setval_203>:
  401b15:	c7 07 9b 89 c1 91    	movl   $0x91c1899b,(%rdi)
  401b1b:	c3                   	retq   

0000000000401b1c <addval_329>:
  401b1c:	8d 87 89 ca 00 db    	lea    -0x24ff3577(%rdi),%eax
  401b22:	c3                   	retq   

0000000000401b23 <addval_485>:
  401b23:	8d 87 8b c1 38 db    	lea    -0x24c73e75(%rdi),%eax
  401b29:	c3                   	retq   

0000000000401b2a <getval_218>:
  401b2a:	b8 48 89 e0 c3       	mov    $0xc3e08948,%eax
  401b2f:	c3                   	retq   

0000000000401b30 <getval_201>:
  401b30:	b8 48 81 e0 c3       	mov    $0xc3e08148,%eax
  401b35:	c3                   	retq   

0000000000401b36 <getval_331>:
  401b36:	b8 89 ca c1 17       	mov    $0x17c1ca89,%eax
  401b3b:	c3                   	retq   

0000000000401b3c <addval_437>:
  401b3c:	8d 87 bf 89 ca 90    	lea    -0x6f357641(%rdi),%eax
  401b42:	c3                   	retq   

0000000000401b43 <setval_228>:
  401b43:	c7 07 89 d6 84 c9    	movl   $0xc984d689,(%rdi)
  401b49:	c3                   	retq   

0000000000401b4a <addval_110>:
  401b4a:	8d 87 81 ca 20 c9    	lea    -0x36df357f(%rdi),%eax
  401b50:	c3                   	retq   

0000000000401b51 <addval_461>:
  401b51:	8d 87 8d c1 90 c3    	lea    -0x3c6f3e73(%rdi),%eax
  401b57:	c3                   	retq   

0000000000401b58 <addval_115>:
  401b58:	8d 87 48 8b e0 90    	lea    -0x6f1f74b8(%rdi),%eax
  401b5e:	c3                   	retq   

0000000000401b5f <getval_134>:
  401b5f:	b8 48 89 e0 c1       	mov    $0xc1e08948,%eax
  401b64:	c3                   	retq   

0000000000401b65 <getval_276>:
  401b65:	b8 89 d6 c7 02       	mov    $0x2c7d689,%eax
  401b6a:	c3                   	retq   

0000000000401b6b <addval_136>:
  401b6b:	8d 87 89 c1 20 c9    	lea    -0x36df3e77(%rdi),%eax
  401b71:	c3                   	retq   

0000000000401b72 <getval_260>:
  401b72:	b8 48 89 e0 92       	mov    $0x92e08948,%eax
  401b77:	c3                   	retq   

0000000000401b78 <getval_441>:
  401b78:	b8 89 d6 c3 56       	mov    $0x56c3d689,%eax
  401b7d:	c3                   	retq   

0000000000401b7e <setval_470>:
  401b7e:	c7 07 99 c1 20 c0    	movl   $0xc020c199,(%rdi)
  401b84:	c3                   	retq   

0000000000401b85 <setval_209>:
  401b85:	c7 07 89 d6 90 c2    	movl   $0xc290d689,(%rdi)
  401b8b:	c3                   	retq   

0000000000401b8c <addval_330>:
  401b8c:	8d 87 89 c1 90 c3    	lea    -0x3c6f3e77(%rdi),%eax
  401b92:	c3                   	retq   

0000000000401b93 <addval_245>:
  401b93:	8d 87 89 d6 a4 c0    	lea    -0x3f5b2977(%rdi),%eax
  401b99:	c3                   	retq   

0000000000401b9a <addval_405>:
  401b9a:	8d 87 99 d6 84 c0    	lea    -0x3f7b2967(%rdi),%eax
  401ba0:	c3                   	retq   

0000000000401ba1 <addval_423>:
  401ba1:	8d 87 09 ca c3 3a    	lea    0x3ac3ca09(%rdi),%eax
  401ba7:	c3                   	retq   

0000000000401ba8 <addval_433>:
  401ba8:	8d 87 89 d6 00 c0    	lea    -0x3fff2977(%rdi),%eax
  401bae:	c3                   	retq   

0000000000401baf <addval_171>:
  401baf:	8d 87 4c 89 e0 c3    	lea    -0x3c1f76b4(%rdi),%eax
  401bb5:	c3                   	retq   

0000000000401bb6 <addval_469>:
  401bb6:	8d 87 48 89 e0 c3    	lea    -0x3c1f76b8(%rdi),%eax
  401bbc:	c3                   	retq   

0000000000401bbd <getval_446>:
  401bbd:	b8 df 89 ca 90       	mov    $0x90ca89df,%eax
  401bc2:	c3                   	retq   

0000000000401bc3 <setval_382>:
  401bc3:	c7 07 48 89 e0 c7    	movl   $0xc7e08948,(%rdi)
  401bc9:	c3                   	retq   

0000000000401bca <getval_132>:
  401bca:	b8 89 ca a4 db       	mov    $0xdba4ca89,%eax
  401bcf:	c3                   	retq   

0000000000401bd0 <addval_129>:
  401bd0:	8d 87 c9 d6 84 db    	lea    -0x247b2937(%rdi),%eax
  401bd6:	c3                   	retq   

0000000000401bd7 <end_farm>:
  401bd7:	b8 01 00 00 00       	mov    $0x1,%eax
  401bdc:	c3                   	retq   

0000000000401bdd <save_char>:
  401bdd:	8b 05 41 45 20 00    	mov    0x204541(%rip),%eax        # 606124 <gets_cnt>
  401be3:	3d ff 03 00 00       	cmp    $0x3ff,%eax
  401be8:	7f 49                	jg     401c33 <save_char+0x56>
  401bea:	89 f9                	mov    %edi,%ecx
  401bec:	c0 e9 04             	shr    $0x4,%cl
  401bef:	8d 14 40             	lea    (%rax,%rax,2),%edx
  401bf2:	83 e1 0f             	and    $0xf,%ecx
  401bf5:	0f b6 b1 50 37 40 00 	movzbl 0x403750(%rcx),%esi
  401bfc:	48 63 ca             	movslq %edx,%rcx
  401bff:	40 88 b1 20 55 60 00 	mov    %sil,0x605520(%rcx)
  401c06:	8d 4a 01             	lea    0x1(%rdx),%ecx
  401c09:	83 e7 0f             	and    $0xf,%edi
  401c0c:	0f b6 b7 50 37 40 00 	movzbl 0x403750(%rdi),%esi
  401c13:	48 63 c9             	movslq %ecx,%rcx
  401c16:	40 88 b1 20 55 60 00 	mov    %sil,0x605520(%rcx)
  401c1d:	83 c2 02             	add    $0x2,%edx
  401c20:	48 63 d2             	movslq %edx,%rdx
  401c23:	c6 82 20 55 60 00 20 	movb   $0x20,0x605520(%rdx)
  401c2a:	83 c0 01             	add    $0x1,%eax
  401c2d:	89 05 f1 44 20 00    	mov    %eax,0x2044f1(%rip)        # 606124 <gets_cnt>
  401c33:	f3 c3                	repz retq 

0000000000401c35 <save_term>:
  401c35:	8b 05 e9 44 20 00    	mov    0x2044e9(%rip),%eax        # 606124 <gets_cnt>
  401c3b:	8d 04 40             	lea    (%rax,%rax,2),%eax
  401c3e:	48 98                	cltq   
  401c40:	c6 80 20 55 60 00 00 	movb   $0x0,0x605520(%rax)
  401c47:	c3                   	retq   

0000000000401c48 <check_fail>:
  401c48:	48 83 ec 08          	sub    $0x8,%rsp
  401c4c:	0f be 15 d5 44 20 00 	movsbl 0x2044d5(%rip),%edx        # 606128 <target_prefix>
  401c53:	41 b8 20 55 60 00    	mov    $0x605520,%r8d
  401c59:	8b 0d 99 38 20 00    	mov    0x203899(%rip),%ecx        # 6054f8 <check_level>
  401c5f:	be 53 34 40 00       	mov    $0x403453,%esi
  401c64:	bf 01 00 00 00       	mov    $0x1,%edi
  401c69:	b8 00 00 00 00       	mov    $0x0,%eax
  401c6e:	e8 6d f1 ff ff       	callq  400de0 <__printf_chk@plt>
  401c73:	bf 01 00 00 00       	mov    $0x1,%edi
  401c78:	e8 b3 f1 ff ff       	callq  400e30 <exit@plt>

0000000000401c7d <Gets>:
  401c7d:	41 54                	push   %r12
  401c7f:	55                   	push   %rbp
  401c80:	53                   	push   %rbx
  401c81:	49 89 fc             	mov    %rdi,%r12
  401c84:	c7 05 96 44 20 00 00 	movl   $0x0,0x204496(%rip)        # 606124 <gets_cnt>
  401c8b:	00 00 00 
  401c8e:	48 89 fb             	mov    %rdi,%rbx
  401c91:	eb 11                	jmp    401ca4 <Gets+0x27>
  401c93:	48 8d 6b 01          	lea    0x1(%rbx),%rbp
  401c97:	88 03                	mov    %al,(%rbx)
  401c99:	0f b6 f8             	movzbl %al,%edi
  401c9c:	e8 3c ff ff ff       	callq  401bdd <save_char>
  401ca1:	48 89 eb             	mov    %rbp,%rbx
  401ca4:	48 8b 3d 45 38 20 00 	mov    0x203845(%rip),%rdi        # 6054f0 <infile>
  401cab:	e8 00 f1 ff ff       	callq  400db0 <_IO_getc@plt>
  401cb0:	83 f8 ff             	cmp    $0xffffffff,%eax
  401cb3:	74 05                	je     401cba <Gets+0x3d>
  401cb5:	83 f8 0a             	cmp    $0xa,%eax
  401cb8:	75 d9                	jne    401c93 <Gets+0x16>
  401cba:	c6 03 00             	movb   $0x0,(%rbx)
  401cbd:	b8 00 00 00 00       	mov    $0x0,%eax
  401cc2:	e8 6e ff ff ff       	callq  401c35 <save_term>
  401cc7:	4c 89 e0             	mov    %r12,%rax
  401cca:	5b                   	pop    %rbx
  401ccb:	5d                   	pop    %rbp
  401ccc:	41 5c                	pop    %r12
  401cce:	c3                   	retq   

0000000000401ccf <notify_server>:
  401ccf:	55                   	push   %rbp
  401cd0:	53                   	push   %rbx
  401cd1:	48 81 ec 18 40 00 00 	sub    $0x4018,%rsp
  401cd8:	64 48 8b 04 25 28 00 	mov    %fs:0x28,%rax
  401cdf:	00 00 
  401ce1:	48 89 84 24 08 40 00 	mov    %rax,0x4008(%rsp)
  401ce8:	00 
  401ce9:	31 c0                	xor    %eax,%eax
  401ceb:	83 3d 16 38 20 00 00 	cmpl   $0x0,0x203816(%rip)        # 605508 <is_checker>
  401cf2:	0f 85 c9 00 00 00    	jne    401dc1 <notify_server+0xf2>
  401cf8:	89 fb                	mov    %edi,%ebx
  401cfa:	8b 05 24 44 20 00    	mov    0x204424(%rip),%eax        # 606124 <gets_cnt>
  401d00:	83 c0 64             	add    $0x64,%eax
  401d03:	3d 00 20 00 00       	cmp    $0x2000,%eax
  401d08:	0f 8f d4 00 00 00    	jg     401de2 <notify_server+0x113>
  401d0e:	0f be 05 13 44 20 00 	movsbl 0x204413(%rip),%eax        # 606128 <target_prefix>
  401d15:	83 3d 6c 37 20 00 00 	cmpl   $0x0,0x20376c(%rip)        # 605488 <notify>
  401d1c:	0f 84 de 00 00 00    	je     401e00 <notify_server+0x131>
  401d22:	8b 15 d8 37 20 00    	mov    0x2037d8(%rip),%edx        # 605500 <authkey>
  401d28:	85 db                	test   %ebx,%ebx
  401d2a:	0f 84 da 00 00 00    	je     401e0a <notify_server+0x13b>
  401d30:	bd 69 34 40 00       	mov    $0x403469,%ebp
  401d35:	68 20 55 60 00       	pushq  $0x605520
  401d3a:	56                   	push   %rsi
  401d3b:	50                   	push   %rax
  401d3c:	52                   	push   %rdx
  401d3d:	49 89 e9             	mov    %rbp,%r9
  401d40:	44 8b 05 01 34 20 00 	mov    0x203401(%rip),%r8d        # 605148 <target_id>
  401d47:	b9 73 34 40 00       	mov    $0x403473,%ecx
  401d4c:	ba 00 20 00 00       	mov    $0x2000,%edx
  401d51:	be 01 00 00 00       	mov    $0x1,%esi
  401d56:	48 8d 7c 24 20       	lea    0x20(%rsp),%rdi
  401d5b:	b8 00 00 00 00       	mov    $0x0,%eax
  401d60:	e8 fb f0 ff ff       	callq  400e60 <__sprintf_chk@plt>
  401d65:	48 83 c4 20          	add    $0x20,%rsp
  401d69:	83 3d 18 37 20 00 00 	cmpl   $0x0,0x203718(%rip)        # 605488 <notify>
  401d70:	0f 84 d3 00 00 00    	je     401e49 <notify_server+0x17a>
  401d76:	85 db                	test   %ebx,%ebx
  401d78:	0f 84 bc 00 00 00    	je     401e3a <notify_server+0x16b>
  401d7e:	4c 8d 8c 24 00 20 00 	lea    0x2000(%rsp),%r9
  401d85:	00 
  401d86:	41 b8 00 00 00 00    	mov    $0x0,%r8d
  401d8c:	48 89 e1             	mov    %rsp,%rcx
  401d8f:	48 8b 15 ba 33 20 00 	mov    0x2033ba(%rip),%rdx        # 605150 <lab>
  401d96:	48 8b 35 bb 33 20 00 	mov    0x2033bb(%rip),%rsi        # 605158 <course>
  401d9d:	48 8b 3d 9c 33 20 00 	mov    0x20339c(%rip),%rdi        # 605140 <user_id>
  401da4:	e8 31 11 00 00       	callq  402eda <driver_post>
  401da9:	85 c0                	test   %eax,%eax
  401dab:	78 67                	js     401e14 <notify_server+0x145>
  401dad:	bf b8 35 40 00       	mov    $0x4035b8,%edi
  401db2:	e8 09 ef ff ff       	callq  400cc0 <puts@plt>
  401db7:	bf 9b 34 40 00       	mov    $0x40349b,%edi
  401dbc:	e8 ff ee ff ff       	callq  400cc0 <puts@plt>
  401dc1:	48 8b 84 24 08 40 00 	mov    0x4008(%rsp),%rax
  401dc8:	00 
  401dc9:	64 48 33 04 25 28 00 	xor    %fs:0x28,%rax
  401dd0:	00 00 
  401dd2:	0f 85 f5 00 00 00    	jne    401ecd <notify_server+0x1fe>
  401dd8:	48 81 c4 18 40 00 00 	add    $0x4018,%rsp
  401ddf:	5b                   	pop    %rbx
  401de0:	5d                   	pop    %rbp
  401de1:	c3                   	retq   
  401de2:	be 88 35 40 00       	mov    $0x403588,%esi
  401de7:	bf 01 00 00 00       	mov    $0x1,%edi
  401dec:	b8 00 00 00 00       	mov    $0x0,%eax
  401df1:	e8 ea ef ff ff       	callq  400de0 <__printf_chk@plt>
  401df6:	bf 01 00 00 00       	mov    $0x1,%edi
  401dfb:	e8 30 f0 ff ff       	callq  400e30 <exit@plt>
  401e00:	ba ff ff ff ff       	mov    $0xffffffff,%edx
  401e05:	e9 1e ff ff ff       	jmpq   401d28 <notify_server+0x59>
  401e0a:	bd 6e 34 40 00       	mov    $0x40346e,%ebp
  401e0f:	e9 21 ff ff ff       	jmpq   401d35 <notify_server+0x66>
  401e14:	48 8d 94 24 00 20 00 	lea    0x2000(%rsp),%rdx
  401e1b:	00 
  401e1c:	be 8f 34 40 00       	mov    $0x40348f,%esi
  401e21:	bf 01 00 00 00       	mov    $0x1,%edi
  401e26:	b8 00 00 00 00       	mov    $0x0,%eax
  401e2b:	e8 b0 ef ff ff       	callq  400de0 <__printf_chk@plt>
  401e30:	bf 01 00 00 00       	mov    $0x1,%edi
  401e35:	e8 f6 ef ff ff       	callq  400e30 <exit@plt>
  401e3a:	bf a5 34 40 00       	mov    $0x4034a5,%edi
  401e3f:	e8 7c ee ff ff       	callq  400cc0 <puts@plt>
  401e44:	e9 78 ff ff ff       	jmpq   401dc1 <notify_server+0xf2>
  401e49:	48 89 ea             	mov    %rbp,%rdx
  401e4c:	be f0 35 40 00       	mov    $0x4035f0,%esi
  401e51:	bf 01 00 00 00       	mov    $0x1,%edi
  401e56:	b8 00 00 00 00       	mov    $0x0,%eax
  401e5b:	e8 80 ef ff ff       	callq  400de0 <__printf_chk@plt>
  401e60:	48 8b 15 d9 32 20 00 	mov    0x2032d9(%rip),%rdx        # 605140 <user_id>
  401e67:	be ac 34 40 00       	mov    $0x4034ac,%esi
  401e6c:	bf 01 00 00 00       	mov    $0x1,%edi
  401e71:	b8 00 00 00 00       	mov    $0x0,%eax
  401e76:	e8 65 ef ff ff       	callq  400de0 <__printf_chk@plt>
  401e7b:	48 8b 15 d6 32 20 00 	mov    0x2032d6(%rip),%rdx        # 605158 <course>
  401e82:	be b9 34 40 00       	mov    $0x4034b9,%esi
  401e87:	bf 01 00 00 00       	mov    $0x1,%edi
  401e8c:	b8 00 00 00 00       	mov    $0x0,%eax
  401e91:	e8 4a ef ff ff       	callq  400de0 <__printf_chk@plt>
  401e96:	48 8b 15 b3 32 20 00 	mov    0x2032b3(%rip),%rdx        # 605150 <lab>
  401e9d:	be c5 34 40 00       	mov    $0x4034c5,%esi
  401ea2:	bf 01 00 00 00       	mov    $0x1,%edi
  401ea7:	b8 00 00 00 00       	mov    $0x0,%eax
  401eac:	e8 2f ef ff ff       	callq  400de0 <__printf_chk@plt>
  401eb1:	48 89 e2             	mov    %rsp,%rdx
  401eb4:	be ce 34 40 00       	mov    $0x4034ce,%esi
  401eb9:	bf 01 00 00 00       	mov    $0x1,%edi
  401ebe:	b8 00 00 00 00       	mov    $0x0,%eax
  401ec3:	e8 18 ef ff ff       	callq  400de0 <__printf_chk@plt>
  401ec8:	e9 f4 fe ff ff       	jmpq   401dc1 <notify_server+0xf2>
  401ecd:	e8 0e ee ff ff       	callq  400ce0 <__stack_chk_fail@plt>

0000000000401ed2 <validate>:
  401ed2:	53                   	push   %rbx
  401ed3:	89 fb                	mov    %edi,%ebx
  401ed5:	83 3d 2c 36 20 00 00 	cmpl   $0x0,0x20362c(%rip)        # 605508 <is_checker>
  401edc:	74 6b                	je     401f49 <validate+0x77>
  401ede:	39 3d 18 36 20 00    	cmp    %edi,0x203618(%rip)        # 6054fc <vlevel>
  401ee4:	75 2f                	jne    401f15 <validate+0x43>
  401ee6:	8b 15 0c 36 20 00    	mov    0x20360c(%rip),%edx        # 6054f8 <check_level>
  401eec:	39 fa                	cmp    %edi,%edx
  401eee:	75 39                	jne    401f29 <validate+0x57>
  401ef0:	0f be 15 31 42 20 00 	movsbl 0x204231(%rip),%edx        # 606128 <target_prefix>
  401ef7:	41 b8 20 55 60 00    	mov    $0x605520,%r8d
  401efd:	89 f9                	mov    %edi,%ecx
  401eff:	be f8 34 40 00       	mov    $0x4034f8,%esi
  401f04:	bf 01 00 00 00       	mov    $0x1,%edi
  401f09:	b8 00 00 00 00       	mov    $0x0,%eax
  401f0e:	e8 cd ee ff ff       	callq  400de0 <__printf_chk@plt>
  401f13:	5b                   	pop    %rbx
  401f14:	c3                   	retq   
  401f15:	bf da 34 40 00       	mov    $0x4034da,%edi
  401f1a:	e8 a1 ed ff ff       	callq  400cc0 <puts@plt>
  401f1f:	b8 00 00 00 00       	mov    $0x0,%eax
  401f24:	e8 1f fd ff ff       	callq  401c48 <check_fail>
  401f29:	89 f9                	mov    %edi,%ecx
  401f2b:	be 18 36 40 00       	mov    $0x403618,%esi
  401f30:	bf 01 00 00 00       	mov    $0x1,%edi
  401f35:	b8 00 00 00 00       	mov    $0x0,%eax
  401f3a:	e8 a1 ee ff ff       	callq  400de0 <__printf_chk@plt>
  401f3f:	b8 00 00 00 00       	mov    $0x0,%eax
  401f44:	e8 ff fc ff ff       	callq  401c48 <check_fail>
  401f49:	39 3d ad 35 20 00    	cmp    %edi,0x2035ad(%rip)        # 6054fc <vlevel>
  401f4f:	74 18                	je     401f69 <validate+0x97>
  401f51:	bf da 34 40 00       	mov    $0x4034da,%edi
  401f56:	e8 65 ed ff ff       	callq  400cc0 <puts@plt>
  401f5b:	89 de                	mov    %ebx,%esi
  401f5d:	bf 00 00 00 00       	mov    $0x0,%edi
  401f62:	e8 68 fd ff ff       	callq  401ccf <notify_server>
  401f67:	eb aa                	jmp    401f13 <validate+0x41>
  401f69:	0f be 0d b8 41 20 00 	movsbl 0x2041b8(%rip),%ecx        # 606128 <target_prefix>
  401f70:	89 fa                	mov    %edi,%edx
  401f72:	be 40 36 40 00       	mov    $0x403640,%esi
  401f77:	bf 01 00 00 00       	mov    $0x1,%edi
  401f7c:	b8 00 00 00 00       	mov    $0x0,%eax
  401f81:	e8 5a ee ff ff       	callq  400de0 <__printf_chk@plt>
  401f86:	89 de                	mov    %ebx,%esi
  401f88:	bf 01 00 00 00       	mov    $0x1,%edi
  401f8d:	e8 3d fd ff ff       	callq  401ccf <notify_server>
  401f92:	e9 7c ff ff ff       	jmpq   401f13 <validate+0x41>

0000000000401f97 <fail>:
  401f97:	48 83 ec 08          	sub    $0x8,%rsp
  401f9b:	83 3d 66 35 20 00 00 	cmpl   $0x0,0x203566(%rip)        # 605508 <is_checker>
  401fa2:	75 11                	jne    401fb5 <fail+0x1e>
  401fa4:	89 fe                	mov    %edi,%esi
  401fa6:	bf 00 00 00 00       	mov    $0x0,%edi
  401fab:	e8 1f fd ff ff       	callq  401ccf <notify_server>
  401fb0:	48 83 c4 08          	add    $0x8,%rsp
  401fb4:	c3                   	retq   
  401fb5:	b8 00 00 00 00       	mov    $0x0,%eax
  401fba:	e8 89 fc ff ff       	callq  401c48 <check_fail>

0000000000401fbf <bushandler>:
  401fbf:	48 83 ec 08          	sub    $0x8,%rsp
  401fc3:	83 3d 3e 35 20 00 00 	cmpl   $0x0,0x20353e(%rip)        # 605508 <is_checker>
  401fca:	74 14                	je     401fe0 <bushandler+0x21>
  401fcc:	bf 0d 35 40 00       	mov    $0x40350d,%edi
  401fd1:	e8 ea ec ff ff       	callq  400cc0 <puts@plt>
  401fd6:	b8 00 00 00 00       	mov    $0x0,%eax
  401fdb:	e8 68 fc ff ff       	callq  401c48 <check_fail>
  401fe0:	bf 78 36 40 00       	mov    $0x403678,%edi
  401fe5:	e8 d6 ec ff ff       	callq  400cc0 <puts@plt>
  401fea:	bf 17 35 40 00       	mov    $0x403517,%edi
  401fef:	e8 cc ec ff ff       	callq  400cc0 <puts@plt>
  401ff4:	be 00 00 00 00       	mov    $0x0,%esi
  401ff9:	bf 00 00 00 00       	mov    $0x0,%edi
  401ffe:	e8 cc fc ff ff       	callq  401ccf <notify_server>
  402003:	bf 01 00 00 00       	mov    $0x1,%edi
  402008:	e8 23 ee ff ff       	callq  400e30 <exit@plt>

000000000040200d <seghandler>:
  40200d:	48 83 ec 08          	sub    $0x8,%rsp
  402011:	83 3d f0 34 20 00 00 	cmpl   $0x0,0x2034f0(%rip)        # 605508 <is_checker>
  402018:	74 14                	je     40202e <seghandler+0x21>
  40201a:	bf 2d 35 40 00       	mov    $0x40352d,%edi
  40201f:	e8 9c ec ff ff       	callq  400cc0 <puts@plt>
  402024:	b8 00 00 00 00       	mov    $0x0,%eax
  402029:	e8 1a fc ff ff       	callq  401c48 <check_fail>
  40202e:	bf 98 36 40 00       	mov    $0x403698,%edi
  402033:	e8 88 ec ff ff       	callq  400cc0 <puts@plt>
  402038:	bf 17 35 40 00       	mov    $0x403517,%edi
  40203d:	e8 7e ec ff ff       	callq  400cc0 <puts@plt>
  402042:	be 00 00 00 00       	mov    $0x0,%esi
  402047:	bf 00 00 00 00       	mov    $0x0,%edi
  40204c:	e8 7e fc ff ff       	callq  401ccf <notify_server>
  402051:	bf 01 00 00 00       	mov    $0x1,%edi
  402056:	e8 d5 ed ff ff       	callq  400e30 <exit@plt>

000000000040205b <illegalhandler>:
  40205b:	48 83 ec 08          	sub    $0x8,%rsp
  40205f:	83 3d a2 34 20 00 00 	cmpl   $0x0,0x2034a2(%rip)        # 605508 <is_checker>
  402066:	74 14                	je     40207c <illegalhandler+0x21>
  402068:	bf 40 35 40 00       	mov    $0x403540,%edi
  40206d:	e8 4e ec ff ff       	callq  400cc0 <puts@plt>
  402072:	b8 00 00 00 00       	mov    $0x0,%eax
  402077:	e8 cc fb ff ff       	callq  401c48 <check_fail>
  40207c:	bf c0 36 40 00       	mov    $0x4036c0,%edi
  402081:	e8 3a ec ff ff       	callq  400cc0 <puts@plt>
  402086:	bf 17 35 40 00       	mov    $0x403517,%edi
  40208b:	e8 30 ec ff ff       	callq  400cc0 <puts@plt>
  402090:	be 00 00 00 00       	mov    $0x0,%esi
  402095:	bf 00 00 00 00       	mov    $0x0,%edi
  40209a:	e8 30 fc ff ff       	callq  401ccf <notify_server>
  40209f:	bf 01 00 00 00       	mov    $0x1,%edi
  4020a4:	e8 87 ed ff ff       	callq  400e30 <exit@plt>

00000000004020a9 <sigalrmhandler>:
  4020a9:	48 83 ec 08          	sub    $0x8,%rsp
  4020ad:	83 3d 54 34 20 00 00 	cmpl   $0x0,0x203454(%rip)        # 605508 <is_checker>
  4020b4:	74 14                	je     4020ca <sigalrmhandler+0x21>
  4020b6:	bf 54 35 40 00       	mov    $0x403554,%edi
  4020bb:	e8 00 ec ff ff       	callq  400cc0 <puts@plt>
  4020c0:	b8 00 00 00 00       	mov    $0x0,%eax
  4020c5:	e8 7e fb ff ff       	callq  401c48 <check_fail>
  4020ca:	ba 05 00 00 00       	mov    $0x5,%edx
  4020cf:	be f0 36 40 00       	mov    $0x4036f0,%esi
  4020d4:	bf 01 00 00 00       	mov    $0x1,%edi
  4020d9:	b8 00 00 00 00       	mov    $0x0,%eax
  4020de:	e8 fd ec ff ff       	callq  400de0 <__printf_chk@plt>
  4020e3:	be 00 00 00 00       	mov    $0x0,%esi
  4020e8:	bf 00 00 00 00       	mov    $0x0,%edi
  4020ed:	e8 dd fb ff ff       	callq  401ccf <notify_server>
  4020f2:	bf 01 00 00 00       	mov    $0x1,%edi
  4020f7:	e8 34 ed ff ff       	callq  400e30 <exit@plt>

00000000004020fc <launch>:
  4020fc:	55                   	push   %rbp
  4020fd:	48 89 e5             	mov    %rsp,%rbp
  402100:	48 83 ec 10          	sub    $0x10,%rsp
  402104:	48 89 fa             	mov    %rdi,%rdx
  402107:	64 48 8b 04 25 28 00 	mov    %fs:0x28,%rax
  40210e:	00 00 
  402110:	48 89 45 f8          	mov    %rax,-0x8(%rbp)
  402114:	31 c0                	xor    %eax,%eax
  402116:	48 8d 47 1e          	lea    0x1e(%rdi),%rax
  40211a:	48 83 e0 f0          	and    $0xfffffffffffffff0,%rax
  40211e:	48 29 c4             	sub    %rax,%rsp
  402121:	48 8d 7c 24 0f       	lea    0xf(%rsp),%rdi
  402126:	48 83 e7 f0          	and    $0xfffffffffffffff0,%rdi
  40212a:	be f4 00 00 00       	mov    $0xf4,%esi
  40212f:	e8 cc eb ff ff       	callq  400d00 <memset@plt>
  402134:	48 8b 05 65 33 20 00 	mov    0x203365(%rip),%rax        # 6054a0 <stdin@@GLIBC_2.2.5>
  40213b:	48 39 05 ae 33 20 00 	cmp    %rax,0x2033ae(%rip)        # 6054f0 <infile>
  402142:	74 38                	je     40217c <launch+0x80>
  402144:	c7 05 ae 33 20 00 00 	movl   $0x0,0x2033ae(%rip)        # 6054fc <vlevel>
  40214b:	00 00 00 
  40214e:	b8 00 00 00 00       	mov    $0x0,%eax
  402153:	e8 3a f9 ff ff       	callq  401a92 <test>
  402158:	83 3d a9 33 20 00 00 	cmpl   $0x0,0x2033a9(%rip)        # 605508 <is_checker>
  40215f:	75 31                	jne    402192 <launch+0x96>
  402161:	bf 74 35 40 00       	mov    $0x403574,%edi
  402166:	e8 55 eb ff ff       	callq  400cc0 <puts@plt>
  40216b:	48 8b 45 f8          	mov    -0x8(%rbp),%rax
  40216f:	64 48 33 04 25 28 00 	xor    %fs:0x28,%rax
  402176:	00 00 
  402178:	75 2c                	jne    4021a6 <launch+0xaa>
  40217a:	c9                   	leaveq 
  40217b:	c3                   	retq   
  40217c:	be 5c 35 40 00       	mov    $0x40355c,%esi
  402181:	bf 01 00 00 00       	mov    $0x1,%edi
  402186:	b8 00 00 00 00       	mov    $0x0,%eax
  40218b:	e8 50 ec ff ff       	callq  400de0 <__printf_chk@plt>
  402190:	eb b2                	jmp    402144 <launch+0x48>
  402192:	bf 69 35 40 00       	mov    $0x403569,%edi
  402197:	e8 24 eb ff ff       	callq  400cc0 <puts@plt>
  40219c:	b8 00 00 00 00       	mov    $0x0,%eax
  4021a1:	e8 a2 fa ff ff       	callq  401c48 <check_fail>
  4021a6:	e8 35 eb ff ff       	callq  400ce0 <__stack_chk_fail@plt>

00000000004021ab <stable_launch>:
  4021ab:	53                   	push   %rbx
  4021ac:	48 89 3d 35 33 20 00 	mov    %rdi,0x203335(%rip)        # 6054e8 <global_offset>
  4021b3:	41 b9 00 00 00 00    	mov    $0x0,%r9d
  4021b9:	41 b8 00 00 00 00    	mov    $0x0,%r8d
  4021bf:	b9 32 01 00 00       	mov    $0x132,%ecx
  4021c4:	ba 07 00 00 00       	mov    $0x7,%edx
  4021c9:	be 00 00 10 00       	mov    $0x100000,%esi
  4021ce:	bf 00 60 58 55       	mov    $0x55586000,%edi
  4021d3:	e8 18 eb ff ff       	callq  400cf0 <mmap@plt>
  4021d8:	48 89 c3             	mov    %rax,%rbx
  4021db:	48 3d 00 60 58 55    	cmp    $0x55586000,%rax
  4021e1:	75 43                	jne    402226 <stable_launch+0x7b>
  4021e3:	48 8d 90 f8 ff 0f 00 	lea    0xffff8(%rax),%rdx
  4021ea:	48 89 15 3f 3f 20 00 	mov    %rdx,0x203f3f(%rip)        # 606130 <stack_top>
  4021f1:	48 89 e0             	mov    %rsp,%rax
  4021f4:	48 89 d4             	mov    %rdx,%rsp
  4021f7:	48 89 c2             	mov    %rax,%rdx
  4021fa:	48 89 15 df 32 20 00 	mov    %rdx,0x2032df(%rip)        # 6054e0 <global_save_stack>
  402201:	48 8b 3d e0 32 20 00 	mov    0x2032e0(%rip),%rdi        # 6054e8 <global_offset>
  402208:	e8 ef fe ff ff       	callq  4020fc <launch>
  40220d:	48 8b 05 cc 32 20 00 	mov    0x2032cc(%rip),%rax        # 6054e0 <global_save_stack>
  402214:	48 89 c4             	mov    %rax,%rsp
  402217:	be 00 00 10 00       	mov    $0x100000,%esi
  40221c:	48 89 df             	mov    %rbx,%rdi
  40221f:	e8 ac eb ff ff       	callq  400dd0 <munmap@plt>
  402224:	5b                   	pop    %rbx
  402225:	c3                   	retq   
  402226:	be 00 00 10 00       	mov    $0x100000,%esi
  40222b:	48 89 c7             	mov    %rax,%rdi
  40222e:	e8 9d eb ff ff       	callq  400dd0 <munmap@plt>
  402233:	b9 00 60 58 55       	mov    $0x55586000,%ecx
  402238:	ba 28 37 40 00       	mov    $0x403728,%edx
  40223d:	be 01 00 00 00       	mov    $0x1,%esi
  402242:	48 8b 3d 77 32 20 00 	mov    0x203277(%rip),%rdi        # 6054c0 <stderr@@GLIBC_2.2.5>
  402249:	b8 00 00 00 00       	mov    $0x0,%eax
  40224e:	e8 fd eb ff ff       	callq  400e50 <__fprintf_chk@plt>
  402253:	bf 01 00 00 00       	mov    $0x1,%edi
  402258:	e8 d3 eb ff ff       	callq  400e30 <exit@plt>

000000000040225d <rio_readinitb>:
  40225d:	89 37                	mov    %esi,(%rdi)
  40225f:	c7 47 04 00 00 00 00 	movl   $0x0,0x4(%rdi)
  402266:	48 8d 47 10          	lea    0x10(%rdi),%rax
  40226a:	48 89 47 08          	mov    %rax,0x8(%rdi)
  40226e:	c3                   	retq   

000000000040226f <sigalrm_handler>:
  40226f:	48 83 ec 08          	sub    $0x8,%rsp
  402273:	b9 00 00 00 00       	mov    $0x0,%ecx
  402278:	ba 60 37 40 00       	mov    $0x403760,%edx
  40227d:	be 01 00 00 00       	mov    $0x1,%esi
  402282:	48 8b 3d 37 32 20 00 	mov    0x203237(%rip),%rdi        # 6054c0 <stderr@@GLIBC_2.2.5>
  402289:	b8 00 00 00 00       	mov    $0x0,%eax
  40228e:	e8 bd eb ff ff       	callq  400e50 <__fprintf_chk@plt>
  402293:	bf 01 00 00 00       	mov    $0x1,%edi
  402298:	e8 93 eb ff ff       	callq  400e30 <exit@plt>

000000000040229d <rio_writen>:
  40229d:	41 55                	push   %r13
  40229f:	41 54                	push   %r12
  4022a1:	55                   	push   %rbp
  4022a2:	53                   	push   %rbx
  4022a3:	48 83 ec 08          	sub    $0x8,%rsp
  4022a7:	41 89 fc             	mov    %edi,%r12d
  4022aa:	48 89 f5             	mov    %rsi,%rbp
  4022ad:	49 89 d5             	mov    %rdx,%r13
  4022b0:	48 89 d3             	mov    %rdx,%rbx
  4022b3:	eb 06                	jmp    4022bb <rio_writen+0x1e>
  4022b5:	48 29 c3             	sub    %rax,%rbx
  4022b8:	48 01 c5             	add    %rax,%rbp
  4022bb:	48 85 db             	test   %rbx,%rbx
  4022be:	74 24                	je     4022e4 <rio_writen+0x47>
  4022c0:	48 89 da             	mov    %rbx,%rdx
  4022c3:	48 89 ee             	mov    %rbp,%rsi
  4022c6:	44 89 e7             	mov    %r12d,%edi
  4022c9:	e8 02 ea ff ff       	callq  400cd0 <write@plt>
  4022ce:	48 85 c0             	test   %rax,%rax
  4022d1:	7f e2                	jg     4022b5 <rio_writen+0x18>
  4022d3:	e8 a8 e9 ff ff       	callq  400c80 <__errno_location@plt>
  4022d8:	83 38 04             	cmpl   $0x4,(%rax)
  4022db:	75 15                	jne    4022f2 <rio_writen+0x55>
  4022dd:	b8 00 00 00 00       	mov    $0x0,%eax
  4022e2:	eb d1                	jmp    4022b5 <rio_writen+0x18>
  4022e4:	4c 89 e8             	mov    %r13,%rax
  4022e7:	48 83 c4 08          	add    $0x8,%rsp
  4022eb:	5b                   	pop    %rbx
  4022ec:	5d                   	pop    %rbp
  4022ed:	41 5c                	pop    %r12
  4022ef:	41 5d                	pop    %r13
  4022f1:	c3                   	retq   
  4022f2:	48 c7 c0 ff ff ff ff 	mov    $0xffffffffffffffff,%rax
  4022f9:	eb ec                	jmp    4022e7 <rio_writen+0x4a>

00000000004022fb <rio_read>:
  4022fb:	41 55                	push   %r13
  4022fd:	41 54                	push   %r12
  4022ff:	55                   	push   %rbp
  402300:	53                   	push   %rbx
  402301:	48 83 ec 08          	sub    $0x8,%rsp
  402305:	48 89 fb             	mov    %rdi,%rbx
  402308:	49 89 f5             	mov    %rsi,%r13
  40230b:	49 89 d4             	mov    %rdx,%r12
  40230e:	eb 0a                	jmp    40231a <rio_read+0x1f>
  402310:	e8 6b e9 ff ff       	callq  400c80 <__errno_location@plt>
  402315:	83 38 04             	cmpl   $0x4,(%rax)
  402318:	75 5c                	jne    402376 <rio_read+0x7b>
  40231a:	8b 6b 04             	mov    0x4(%rbx),%ebp
  40231d:	85 ed                	test   %ebp,%ebp
  40231f:	7f 24                	jg     402345 <rio_read+0x4a>
  402321:	48 8d 6b 10          	lea    0x10(%rbx),%rbp
  402325:	8b 3b                	mov    (%rbx),%edi
  402327:	ba 00 20 00 00       	mov    $0x2000,%edx
  40232c:	48 89 ee             	mov    %rbp,%rsi
  40232f:	e8 fc e9 ff ff       	callq  400d30 <read@plt>
  402334:	89 43 04             	mov    %eax,0x4(%rbx)
  402337:	85 c0                	test   %eax,%eax
  402339:	78 d5                	js     402310 <rio_read+0x15>
  40233b:	85 c0                	test   %eax,%eax
  40233d:	74 40                	je     40237f <rio_read+0x84>
  40233f:	48 89 6b 08          	mov    %rbp,0x8(%rbx)
  402343:	eb d5                	jmp    40231a <rio_read+0x1f>
  402345:	89 e8                	mov    %ebp,%eax
  402347:	4c 39 e0             	cmp    %r12,%rax
  40234a:	72 03                	jb     40234f <rio_read+0x54>
  40234c:	44 89 e5             	mov    %r12d,%ebp
  40234f:	4c 63 e5             	movslq %ebp,%r12
  402352:	48 8b 73 08          	mov    0x8(%rbx),%rsi
  402356:	4c 89 e2             	mov    %r12,%rdx
  402359:	4c 89 ef             	mov    %r13,%rdi
  40235c:	e8 1f ea ff ff       	callq  400d80 <memcpy@plt>
  402361:	4c 01 63 08          	add    %r12,0x8(%rbx)
  402365:	29 6b 04             	sub    %ebp,0x4(%rbx)
  402368:	4c 89 e0             	mov    %r12,%rax
  40236b:	48 83 c4 08          	add    $0x8,%rsp
  40236f:	5b                   	pop    %rbx
  402370:	5d                   	pop    %rbp
  402371:	41 5c                	pop    %r12
  402373:	41 5d                	pop    %r13
  402375:	c3                   	retq   
  402376:	48 c7 c0 ff ff ff ff 	mov    $0xffffffffffffffff,%rax
  40237d:	eb ec                	jmp    40236b <rio_read+0x70>
  40237f:	b8 00 00 00 00       	mov    $0x0,%eax
  402384:	eb e5                	jmp    40236b <rio_read+0x70>

0000000000402386 <rio_readlineb>:
  402386:	41 55                	push   %r13
  402388:	41 54                	push   %r12
  40238a:	55                   	push   %rbp
  40238b:	53                   	push   %rbx
  40238c:	48 83 ec 18          	sub    $0x18,%rsp
  402390:	49 89 fd             	mov    %rdi,%r13
  402393:	48 89 f5             	mov    %rsi,%rbp
  402396:	49 89 d4             	mov    %rdx,%r12
  402399:	64 48 8b 04 25 28 00 	mov    %fs:0x28,%rax
  4023a0:	00 00 
  4023a2:	48 89 44 24 08       	mov    %rax,0x8(%rsp)
  4023a7:	31 c0                	xor    %eax,%eax
  4023a9:	bb 01 00 00 00       	mov    $0x1,%ebx
  4023ae:	4c 39 e3             	cmp    %r12,%rbx
  4023b1:	73 47                	jae    4023fa <rio_readlineb+0x74>
  4023b3:	ba 01 00 00 00       	mov    $0x1,%edx
  4023b8:	48 8d 74 24 07       	lea    0x7(%rsp),%rsi
  4023bd:	4c 89 ef             	mov    %r13,%rdi
  4023c0:	e8 36 ff ff ff       	callq  4022fb <rio_read>
  4023c5:	83 f8 01             	cmp    $0x1,%eax
  4023c8:	75 1c                	jne    4023e6 <rio_readlineb+0x60>
  4023ca:	48 8d 45 01          	lea    0x1(%rbp),%rax
  4023ce:	0f b6 54 24 07       	movzbl 0x7(%rsp),%edx
  4023d3:	88 55 00             	mov    %dl,0x0(%rbp)
  4023d6:	80 7c 24 07 0a       	cmpb   $0xa,0x7(%rsp)
  4023db:	74 1a                	je     4023f7 <rio_readlineb+0x71>
  4023dd:	48 83 c3 01          	add    $0x1,%rbx
  4023e1:	48 89 c5             	mov    %rax,%rbp
  4023e4:	eb c8                	jmp    4023ae <rio_readlineb+0x28>
  4023e6:	85 c0                	test   %eax,%eax
  4023e8:	75 32                	jne    40241c <rio_readlineb+0x96>
  4023ea:	48 83 fb 01          	cmp    $0x1,%rbx
  4023ee:	75 0a                	jne    4023fa <rio_readlineb+0x74>
  4023f0:	b8 00 00 00 00       	mov    $0x0,%eax
  4023f5:	eb 0a                	jmp    402401 <rio_readlineb+0x7b>
  4023f7:	48 89 c5             	mov    %rax,%rbp
  4023fa:	c6 45 00 00          	movb   $0x0,0x0(%rbp)
  4023fe:	48 89 d8             	mov    %rbx,%rax
  402401:	48 8b 4c 24 08       	mov    0x8(%rsp),%rcx
  402406:	64 48 33 0c 25 28 00 	xor    %fs:0x28,%rcx
  40240d:	00 00 
  40240f:	75 14                	jne    402425 <rio_readlineb+0x9f>
  402411:	48 83 c4 18          	add    $0x18,%rsp
  402415:	5b                   	pop    %rbx
  402416:	5d                   	pop    %rbp
  402417:	41 5c                	pop    %r12
  402419:	41 5d                	pop    %r13
  40241b:	c3                   	retq   
  40241c:	48 c7 c0 ff ff ff ff 	mov    $0xffffffffffffffff,%rax
  402423:	eb dc                	jmp    402401 <rio_readlineb+0x7b>
  402425:	e8 b6 e8 ff ff       	callq  400ce0 <__stack_chk_fail@plt>

000000000040242a <urlencode>:
  40242a:	41 54                	push   %r12
  40242c:	55                   	push   %rbp
  40242d:	53                   	push   %rbx
  40242e:	48 83 ec 10          	sub    $0x10,%rsp
  402432:	48 89 fb             	mov    %rdi,%rbx
  402435:	48 89 f5             	mov    %rsi,%rbp
  402438:	64 48 8b 04 25 28 00 	mov    %fs:0x28,%rax
  40243f:	00 00 
  402441:	48 89 44 24 08       	mov    %rax,0x8(%rsp)
  402446:	31 c0                	xor    %eax,%eax
  402448:	48 c7 c1 ff ff ff ff 	mov    $0xffffffffffffffff,%rcx
  40244f:	f2 ae                	repnz scas %es:(%rdi),%al
  402451:	48 89 ce             	mov    %rcx,%rsi
  402454:	48 f7 d6             	not    %rsi
  402457:	8d 46 ff             	lea    -0x1(%rsi),%eax
  40245a:	eb 0f                	jmp    40246b <urlencode+0x41>
  40245c:	44 88 45 00          	mov    %r8b,0x0(%rbp)
  402460:	48 8d 6d 01          	lea    0x1(%rbp),%rbp
  402464:	48 83 c3 01          	add    $0x1,%rbx
  402468:	44 89 e0             	mov    %r12d,%eax
  40246b:	44 8d 60 ff          	lea    -0x1(%rax),%r12d
  40246f:	85 c0                	test   %eax,%eax
  402471:	0f 84 a6 00 00 00    	je     40251d <urlencode+0xf3>
  402477:	44 0f b6 03          	movzbl (%rbx),%r8d
  40247b:	41 80 f8 2a          	cmp    $0x2a,%r8b
  40247f:	0f 94 c2             	sete   %dl
  402482:	41 80 f8 2d          	cmp    $0x2d,%r8b
  402486:	0f 94 c0             	sete   %al
  402489:	08 c2                	or     %al,%dl
  40248b:	75 cf                	jne    40245c <urlencode+0x32>
  40248d:	41 80 f8 2e          	cmp    $0x2e,%r8b
  402491:	74 c9                	je     40245c <urlencode+0x32>
  402493:	41 80 f8 5f          	cmp    $0x5f,%r8b
  402497:	74 c3                	je     40245c <urlencode+0x32>
  402499:	41 8d 40 d0          	lea    -0x30(%r8),%eax
  40249d:	3c 09                	cmp    $0x9,%al
  40249f:	76 bb                	jbe    40245c <urlencode+0x32>
  4024a1:	41 8d 40 bf          	lea    -0x41(%r8),%eax
  4024a5:	3c 19                	cmp    $0x19,%al
  4024a7:	76 b3                	jbe    40245c <urlencode+0x32>
  4024a9:	41 8d 40 9f          	lea    -0x61(%r8),%eax
  4024ad:	3c 19                	cmp    $0x19,%al
  4024af:	76 ab                	jbe    40245c <urlencode+0x32>
  4024b1:	41 80 f8 20          	cmp    $0x20,%r8b
  4024b5:	74 54                	je     40250b <urlencode+0xe1>
  4024b7:	41 8d 40 e0          	lea    -0x20(%r8),%eax
  4024bb:	3c 5f                	cmp    $0x5f,%al
  4024bd:	0f 96 c2             	setbe  %dl
  4024c0:	41 80 f8 09          	cmp    $0x9,%r8b
  4024c4:	0f 94 c0             	sete   %al
  4024c7:	08 c2                	or     %al,%dl
  4024c9:	74 4d                	je     402518 <urlencode+0xee>
  4024cb:	45 0f b6 c0          	movzbl %r8b,%r8d
  4024cf:	b9 f8 37 40 00       	mov    $0x4037f8,%ecx
  4024d4:	ba 08 00 00 00       	mov    $0x8,%edx
  4024d9:	be 01 00 00 00       	mov    $0x1,%esi
  4024de:	48 89 e7             	mov    %rsp,%rdi
  4024e1:	b8 00 00 00 00       	mov    $0x0,%eax
  4024e6:	e8 75 e9 ff ff       	callq  400e60 <__sprintf_chk@plt>
  4024eb:	0f b6 04 24          	movzbl (%rsp),%eax
  4024ef:	88 45 00             	mov    %al,0x0(%rbp)
  4024f2:	0f b6 44 24 01       	movzbl 0x1(%rsp),%eax
  4024f7:	88 45 01             	mov    %al,0x1(%rbp)
  4024fa:	0f b6 44 24 02       	movzbl 0x2(%rsp),%eax
  4024ff:	88 45 02             	mov    %al,0x2(%rbp)
  402502:	48 8d 6d 03          	lea    0x3(%rbp),%rbp
  402506:	e9 59 ff ff ff       	jmpq   402464 <urlencode+0x3a>
  40250b:	c6 45 00 2b          	movb   $0x2b,0x0(%rbp)
  40250f:	48 8d 6d 01          	lea    0x1(%rbp),%rbp
  402513:	e9 4c ff ff ff       	jmpq   402464 <urlencode+0x3a>
  402518:	b8 ff ff ff ff       	mov    $0xffffffff,%eax
  40251d:	48 8b 74 24 08       	mov    0x8(%rsp),%rsi
  402522:	64 48 33 34 25 28 00 	xor    %fs:0x28,%rsi
  402529:	00 00 
  40252b:	75 09                	jne    402536 <urlencode+0x10c>
  40252d:	48 83 c4 10          	add    $0x10,%rsp
  402531:	5b                   	pop    %rbx
  402532:	5d                   	pop    %rbp
  402533:	41 5c                	pop    %r12
  402535:	c3                   	retq   
  402536:	e8 a5 e7 ff ff       	callq  400ce0 <__stack_chk_fail@plt>

000000000040253b <submitr>:
  40253b:	41 57                	push   %r15
  40253d:	41 56                	push   %r14
  40253f:	41 55                	push   %r13
  402541:	41 54                	push   %r12
  402543:	55                   	push   %rbp
  402544:	53                   	push   %rbx
  402545:	48 81 ec 58 a0 00 00 	sub    $0xa058,%rsp
  40254c:	49 89 fc             	mov    %rdi,%r12
  40254f:	89 74 24 04          	mov    %esi,0x4(%rsp)
  402553:	49 89 d7             	mov    %rdx,%r15
  402556:	49 89 ce             	mov    %rcx,%r14
  402559:	4c 89 44 24 08       	mov    %r8,0x8(%rsp)
  40255e:	4d 89 cd             	mov    %r9,%r13
  402561:	48 8b ac 24 90 a0 00 	mov    0xa090(%rsp),%rbp
  402568:	00 
  402569:	64 48 8b 04 25 28 00 	mov    %fs:0x28,%rax
  402570:	00 00 
  402572:	48 89 84 24 48 a0 00 	mov    %rax,0xa048(%rsp)
  402579:	00 
  40257a:	31 c0                	xor    %eax,%eax
  40257c:	c7 44 24 1c 00 00 00 	movl   $0x0,0x1c(%rsp)
  402583:	00 
  402584:	ba 00 00 00 00       	mov    $0x0,%edx
  402589:	be 01 00 00 00       	mov    $0x1,%esi
  40258e:	bf 02 00 00 00       	mov    $0x2,%edi
  402593:	e8 d8 e8 ff ff       	callq  400e70 <socket@plt>
  402598:	85 c0                	test   %eax,%eax
  40259a:	0f 88 9b 02 00 00    	js     40283b <submitr+0x300>
  4025a0:	89 c3                	mov    %eax,%ebx
  4025a2:	4c 89 e7             	mov    %r12,%rdi
  4025a5:	e8 a6 e7 ff ff       	callq  400d50 <gethostbyname@plt>
  4025aa:	48 85 c0             	test   %rax,%rax
  4025ad:	0f 84 d4 02 00 00    	je     402887 <submitr+0x34c>
  4025b3:	48 c7 44 24 22 00 00 	movq   $0x0,0x22(%rsp)
  4025ba:	00 00 
  4025bc:	c7 44 24 2a 00 00 00 	movl   $0x0,0x2a(%rsp)
  4025c3:	00 
  4025c4:	66 c7 44 24 2e 00 00 	movw   $0x0,0x2e(%rsp)
  4025cb:	66 c7 44 24 20 02 00 	movw   $0x2,0x20(%rsp)
  4025d2:	48 63 50 14          	movslq 0x14(%rax),%rdx
  4025d6:	48 8b 40 18          	mov    0x18(%rax),%rax
  4025da:	48 8b 30             	mov    (%rax),%rsi
  4025dd:	48 8d 7c 24 24       	lea    0x24(%rsp),%rdi
  4025e2:	b9 0c 00 00 00       	mov    $0xc,%ecx
  4025e7:	e8 74 e7 ff ff       	callq  400d60 <__memmove_chk@plt>
  4025ec:	0f b7 44 24 04       	movzwl 0x4(%rsp),%eax
  4025f1:	66 c1 c8 08          	ror    $0x8,%ax
  4025f5:	66 89 44 24 22       	mov    %ax,0x22(%rsp)
  4025fa:	ba 10 00 00 00       	mov    $0x10,%edx
  4025ff:	48 8d 74 24 20       	lea    0x20(%rsp),%rsi
  402604:	89 df                	mov    %ebx,%edi
  402606:	e8 35 e8 ff ff       	callq  400e40 <connect@plt>
  40260b:	85 c0                	test   %eax,%eax
  40260d:	0f 88 dc 02 00 00    	js     4028ef <submitr+0x3b4>
  402613:	48 c7 c6 ff ff ff ff 	mov    $0xffffffffffffffff,%rsi
  40261a:	b8 00 00 00 00       	mov    $0x0,%eax
  40261f:	48 89 f1             	mov    %rsi,%rcx
  402622:	4c 89 ef             	mov    %r13,%rdi
  402625:	f2 ae                	repnz scas %es:(%rdi),%al
  402627:	48 89 ca             	mov    %rcx,%rdx
  40262a:	48 f7 d2             	not    %rdx
  40262d:	48 89 f1             	mov    %rsi,%rcx
  402630:	4c 89 ff             	mov    %r15,%rdi
  402633:	f2 ae                	repnz scas %es:(%rdi),%al
  402635:	48 f7 d1             	not    %rcx
  402638:	49 89 c8             	mov    %rcx,%r8
  40263b:	48 89 f1             	mov    %rsi,%rcx
  40263e:	4c 89 f7             	mov    %r14,%rdi
  402641:	f2 ae                	repnz scas %es:(%rdi),%al
  402643:	48 f7 d1             	not    %rcx
  402646:	4d 8d 44 08 fe       	lea    -0x2(%r8,%rcx,1),%r8
  40264b:	48 89 f1             	mov    %rsi,%rcx
  40264e:	48 8b 7c 24 08       	mov    0x8(%rsp),%rdi
  402653:	f2 ae                	repnz scas %es:(%rdi),%al
  402655:	48 89 c8             	mov    %rcx,%rax
  402658:	48 f7 d0             	not    %rax
  40265b:	49 8d 4c 00 ff       	lea    -0x1(%r8,%rax,1),%rcx
  402660:	48 8d 44 52 fd       	lea    -0x3(%rdx,%rdx,2),%rax
  402665:	48 8d 84 01 80 00 00 	lea    0x80(%rcx,%rax,1),%rax
  40266c:	00 
  40266d:	48 3d 00 20 00 00    	cmp    $0x2000,%rax
  402673:	0f 87 d0 02 00 00    	ja     402949 <submitr+0x40e>
  402679:	48 8d b4 24 40 40 00 	lea    0x4040(%rsp),%rsi
  402680:	00 
  402681:	b9 00 04 00 00       	mov    $0x400,%ecx
  402686:	b8 00 00 00 00       	mov    $0x0,%eax
  40268b:	48 89 f7             	mov    %rsi,%rdi
  40268e:	f3 48 ab             	rep stos %rax,%es:(%rdi)
  402691:	4c 89 ef             	mov    %r13,%rdi
  402694:	e8 91 fd ff ff       	callq  40242a <urlencode>
  402699:	85 c0                	test   %eax,%eax
  40269b:	0f 88 1b 03 00 00    	js     4029bc <submitr+0x481>
  4026a1:	4c 8d ac 24 40 20 00 	lea    0x2040(%rsp),%r13
  4026a8:	00 
  4026a9:	41 54                	push   %r12
  4026ab:	48 8d 84 24 48 40 00 	lea    0x4048(%rsp),%rax
  4026b2:	00 
  4026b3:	50                   	push   %rax
  4026b4:	4d 89 f9             	mov    %r15,%r9
  4026b7:	4d 89 f0             	mov    %r14,%r8
  4026ba:	b9 88 37 40 00       	mov    $0x403788,%ecx
  4026bf:	ba 00 20 00 00       	mov    $0x2000,%edx
  4026c4:	be 01 00 00 00       	mov    $0x1,%esi
  4026c9:	4c 89 ef             	mov    %r13,%rdi
  4026cc:	b8 00 00 00 00       	mov    $0x0,%eax
  4026d1:	e8 8a e7 ff ff       	callq  400e60 <__sprintf_chk@plt>
  4026d6:	48 c7 c1 ff ff ff ff 	mov    $0xffffffffffffffff,%rcx
  4026dd:	b8 00 00 00 00       	mov    $0x0,%eax
  4026e2:	4c 89 ef             	mov    %r13,%rdi
  4026e5:	f2 ae                	repnz scas %es:(%rdi),%al
  4026e7:	48 89 ca             	mov    %rcx,%rdx
  4026ea:	48 f7 d2             	not    %rdx
  4026ed:	48 8d 52 ff          	lea    -0x1(%rdx),%rdx
  4026f1:	4c 89 ee             	mov    %r13,%rsi
  4026f4:	89 df                	mov    %ebx,%edi
  4026f6:	e8 a2 fb ff ff       	callq  40229d <rio_writen>
  4026fb:	48 83 c4 10          	add    $0x10,%rsp
  4026ff:	48 85 c0             	test   %rax,%rax
  402702:	0f 88 3f 03 00 00    	js     402a47 <submitr+0x50c>
  402708:	89 de                	mov    %ebx,%esi
  40270a:	48 8d 7c 24 30       	lea    0x30(%rsp),%rdi
  40270f:	e8 49 fb ff ff       	callq  40225d <rio_readinitb>
  402714:	ba 00 20 00 00       	mov    $0x2000,%edx
  402719:	48 8d b4 24 40 20 00 	lea    0x2040(%rsp),%rsi
  402720:	00 
  402721:	48 8d 7c 24 30       	lea    0x30(%rsp),%rdi
  402726:	e8 5b fc ff ff       	callq  402386 <rio_readlineb>
  40272b:	48 85 c0             	test   %rax,%rax
  40272e:	0f 8e 82 03 00 00    	jle    402ab6 <submitr+0x57b>
  402734:	4c 8d 84 24 40 80 00 	lea    0x8040(%rsp),%r8
  40273b:	00 
  40273c:	48 8d 4c 24 1c       	lea    0x1c(%rsp),%rcx
  402741:	48 8d 94 24 40 60 00 	lea    0x6040(%rsp),%rdx
  402748:	00 
  402749:	be ff 37 40 00       	mov    $0x4037ff,%esi
  40274e:	48 8d bc 24 40 20 00 	lea    0x2040(%rsp),%rdi
  402755:	00 
  402756:	b8 00 00 00 00       	mov    $0x0,%eax
  40275b:	e8 60 e6 ff ff       	callq  400dc0 <__isoc99_sscanf@plt>
  402760:	48 8d b4 24 40 20 00 	lea    0x2040(%rsp),%rsi
  402767:	00 
  402768:	bf 16 38 40 00       	mov    $0x403816,%edi
  40276d:	b9 03 00 00 00       	mov    $0x3,%ecx
  402772:	f3 a6                	repz cmpsb %es:(%rdi),%ds:(%rsi)
  402774:	0f 97 c0             	seta   %al
  402777:	1c 00                	sbb    $0x0,%al
  402779:	84 c0                	test   %al,%al
  40277b:	0f 84 b3 03 00 00    	je     402b34 <submitr+0x5f9>
  402781:	ba 00 20 00 00       	mov    $0x2000,%edx
  402786:	48 8d b4 24 40 20 00 	lea    0x2040(%rsp),%rsi
  40278d:	00 
  40278e:	48 8d 7c 24 30       	lea    0x30(%rsp),%rdi
  402793:	e8 ee fb ff ff       	callq  402386 <rio_readlineb>
  402798:	48 85 c0             	test   %rax,%rax
  40279b:	7f c3                	jg     402760 <submitr+0x225>
  40279d:	48 b8 45 72 72 6f 72 	movabs $0x43203a726f727245,%rax
  4027a4:	3a 20 43 
  4027a7:	48 ba 6c 69 65 6e 74 	movabs $0x6e7520746e65696c,%rdx
  4027ae:	20 75 6e 
  4027b1:	48 89 45 00          	mov    %rax,0x0(%rbp)
  4027b5:	48 89 55 08          	mov    %rdx,0x8(%rbp)
  4027b9:	48 b8 61 62 6c 65 20 	movabs $0x206f7420656c6261,%rax
  4027c0:	74 6f 20 
  4027c3:	48 ba 72 65 61 64 20 	movabs $0x6165682064616572,%rdx
  4027ca:	68 65 61 
  4027cd:	48 89 45 10          	mov    %rax,0x10(%rbp)
  4027d1:	48 89 55 18          	mov    %rdx,0x18(%rbp)
  4027d5:	48 b8 64 65 72 73 20 	movabs $0x6f72662073726564,%rax
  4027dc:	66 72 6f 
  4027df:	48 ba 6d 20 74 68 65 	movabs $0x657220656874206d,%rdx
  4027e6:	20 72 65 
  4027e9:	48 89 45 20          	mov    %rax,0x20(%rbp)
  4027ed:	48 89 55 28          	mov    %rdx,0x28(%rbp)
  4027f1:	48 b8 73 75 6c 74 20 	movabs $0x72657320746c7573,%rax
  4027f8:	73 65 72 
  4027fb:	48 89 45 30          	mov    %rax,0x30(%rbp)
  4027ff:	c7 45 38 76 65 72 00 	movl   $0x726576,0x38(%rbp)
  402806:	89 df                	mov    %ebx,%edi
  402808:	e8 13 e5 ff ff       	callq  400d20 <close@plt>
  40280d:	b8 ff ff ff ff       	mov    $0xffffffff,%eax
  402812:	48 8b 9c 24 48 a0 00 	mov    0xa048(%rsp),%rbx
  402819:	00 
  40281a:	64 48 33 1c 25 28 00 	xor    %fs:0x28,%rbx
  402821:	00 00 
  402823:	0f 85 76 04 00 00    	jne    402c9f <submitr+0x764>
  402829:	48 81 c4 58 a0 00 00 	add    $0xa058,%rsp
  402830:	5b                   	pop    %rbx
  402831:	5d                   	pop    %rbp
  402832:	41 5c                	pop    %r12
  402834:	41 5d                	pop    %r13
  402836:	41 5e                	pop    %r14
  402838:	41 5f                	pop    %r15
  40283a:	c3                   	retq   
  40283b:	48 b8 45 72 72 6f 72 	movabs $0x43203a726f727245,%rax
  402842:	3a 20 43 
  402845:	48 ba 6c 69 65 6e 74 	movabs $0x6e7520746e65696c,%rdx
  40284c:	20 75 6e 
  40284f:	48 89 45 00          	mov    %rax,0x0(%rbp)
  402853:	48 89 55 08          	mov    %rdx,0x8(%rbp)
  402857:	48 b8 61 62 6c 65 20 	movabs $0x206f7420656c6261,%rax
  40285e:	74 6f 20 
  402861:	48 ba 63 72 65 61 74 	movabs $0x7320657461657263,%rdx
  402868:	65 20 73 
  40286b:	48 89 45 10          	mov    %rax,0x10(%rbp)
  40286f:	48 89 55 18          	mov    %rdx,0x18(%rbp)
  402873:	c7 45 20 6f 63 6b 65 	movl   $0x656b636f,0x20(%rbp)
  40287a:	66 c7 45 24 74 00    	movw   $0x74,0x24(%rbp)
  402880:	b8 ff ff ff ff       	mov    $0xffffffff,%eax
  402885:	eb 8b                	jmp    402812 <submitr+0x2d7>
  402887:	48 b8 45 72 72 6f 72 	movabs $0x44203a726f727245,%rax
  40288e:	3a 20 44 
  402891:	48 ba 4e 53 20 69 73 	movabs $0x6e7520736920534e,%rdx
  402898:	20 75 6e 
  40289b:	48 89 45 00          	mov    %rax,0x0(%rbp)
  40289f:	48 89 55 08          	mov    %rdx,0x8(%rbp)
  4028a3:	48 b8 61 62 6c 65 20 	movabs $0x206f7420656c6261,%rax
  4028aa:	74 6f 20 
  4028ad:	48 ba 72 65 73 6f 6c 	movabs $0x2065766c6f736572,%rdx
  4028b4:	76 65 20 
  4028b7:	48 89 45 10          	mov    %rax,0x10(%rbp)
  4028bb:	48 89 55 18          	mov    %rdx,0x18(%rbp)
  4028bf:	48 b8 73 65 72 76 65 	movabs $0x6120726576726573,%rax
  4028c6:	72 20 61 
  4028c9:	48 89 45 20          	mov    %rax,0x20(%rbp)
  4028cd:	c7 45 28 64 64 72 65 	movl   $0x65726464,0x28(%rbp)
  4028d4:	66 c7 45 2c 73 73    	movw   $0x7373,0x2c(%rbp)
  4028da:	c6 45 2e 00          	movb   $0x0,0x2e(%rbp)
  4028de:	89 df                	mov    %ebx,%edi
  4028e0:	e8 3b e4 ff ff       	callq  400d20 <close@plt>
  4028e5:	b8 ff ff ff ff       	mov    $0xffffffff,%eax
  4028ea:	e9 23 ff ff ff       	jmpq   402812 <submitr+0x2d7>
  4028ef:	48 b8 45 72 72 6f 72 	movabs $0x55203a726f727245,%rax
  4028f6:	3a 20 55 
  4028f9:	48 ba 6e 61 62 6c 65 	movabs $0x6f7420656c62616e,%rdx
  402900:	20 74 6f 
  402903:	48 89 45 00          	mov    %rax,0x0(%rbp)
  402907:	48 89 55 08          	mov    %rdx,0x8(%rbp)
  40290b:	48 b8 20 63 6f 6e 6e 	movabs $0x7463656e6e6f6320,%rax
  402912:	65 63 74 
  402915:	48 ba 20 74 6f 20 74 	movabs $0x20656874206f7420,%rdx
  40291c:	68 65 20 
  40291f:	48 89 45 10          	mov    %rax,0x10(%rbp)
  402923:	48 89 55 18          	mov    %rdx,0x18(%rbp)
  402927:	c7 45 20 73 65 72 76 	movl   $0x76726573,0x20(%rbp)
  40292e:	66 c7 45 24 65 72    	movw   $0x7265,0x24(%rbp)
  402934:	c6 45 26 00          	movb   $0x0,0x26(%rbp)
  402938:	89 df                	mov    %ebx,%edi
  40293a:	e8 e1 e3 ff ff       	callq  400d20 <close@plt>
  40293f:	b8 ff ff ff ff       	mov    $0xffffffff,%eax
  402944:	e9 c9 fe ff ff       	jmpq   402812 <submitr+0x2d7>
  402949:	48 b8 45 72 72 6f 72 	movabs $0x52203a726f727245,%rax
  402950:	3a 20 52 
  402953:	48 ba 65 73 75 6c 74 	movabs $0x747320746c757365,%rdx
  40295a:	20 73 74 
  40295d:	48 89 45 00          	mov    %rax,0x0(%rbp)
  402961:	48 89 55 08          	mov    %rdx,0x8(%rbp)
  402965:	48 b8 72 69 6e 67 20 	movabs $0x6f6f7420676e6972,%rax
  40296c:	74 6f 6f 
  40296f:	48 ba 20 6c 61 72 67 	movabs $0x202e656772616c20,%rdx
  402976:	65 2e 20 
  402979:	48 89 45 10          	mov    %rax,0x10(%rbp)
  40297d:	48 89 55 18          	mov    %rdx,0x18(%rbp)
  402981:	48 b8 49 6e 63 72 65 	movabs $0x6573616572636e49,%rax
  402988:	61 73 65 
  40298b:	48 ba 20 53 55 42 4d 	movabs $0x5254494d42555320,%rdx
  402992:	49 54 52 
  402995:	48 89 45 20          	mov    %rax,0x20(%rbp)
  402999:	48 89 55 28          	mov    %rdx,0x28(%rbp)
  40299d:	48 b8 5f 4d 41 58 42 	movabs $0x46554258414d5f,%rax
  4029a4:	55 46 00 
  4029a7:	48 89 45 30          	mov    %rax,0x30(%rbp)
  4029ab:	89 df                	mov    %ebx,%edi
  4029ad:	e8 6e e3 ff ff       	callq  400d20 <close@plt>
  4029b2:	b8 ff ff ff ff       	mov    $0xffffffff,%eax
  4029b7:	e9 56 fe ff ff       	jmpq   402812 <submitr+0x2d7>
  4029bc:	48 b8 45 72 72 6f 72 	movabs $0x52203a726f727245,%rax
  4029c3:	3a 20 52 
  4029c6:	48 ba 65 73 75 6c 74 	movabs $0x747320746c757365,%rdx
  4029cd:	20 73 74 
  4029d0:	48 89 45 00          	mov    %rax,0x0(%rbp)
  4029d4:	48 89 55 08          	mov    %rdx,0x8(%rbp)
  4029d8:	48 b8 72 69 6e 67 20 	movabs $0x6e6f6320676e6972,%rax
  4029df:	63 6f 6e 
  4029e2:	48 ba 74 61 69 6e 73 	movabs $0x6e6120736e696174,%rdx
  4029e9:	20 61 6e 
  4029ec:	48 89 45 10          	mov    %rax,0x10(%rbp)
  4029f0:	48 89 55 18          	mov    %rdx,0x18(%rbp)
  4029f4:	48 b8 20 69 6c 6c 65 	movabs $0x6c6167656c6c6920,%rax
  4029fb:	67 61 6c 
  4029fe:	48 ba 20 6f 72 20 75 	movabs $0x72706e7520726f20,%rdx
  402a05:	6e 70 72 
  402a08:	48 89 45 20          	mov    %rax,0x20(%rbp)
  402a0c:	48 89 55 28          	mov    %rdx,0x28(%rbp)
  402a10:	48 b8 69 6e 74 61 62 	movabs $0x20656c6261746e69,%rax
  402a17:	6c 65 20 
  402a1a:	48 ba 63 68 61 72 61 	movabs $0x6574636172616863,%rdx
  402a21:	63 74 65 
  402a24:	48 89 45 30          	mov    %rax,0x30(%rbp)
  402a28:	48 89 55 38          	mov    %rdx,0x38(%rbp)
  402a2c:	66 c7 45 40 72 2e    	movw   $0x2e72,0x40(%rbp)
  402a32:	c6 45 42 00          	movb   $0x0,0x42(%rbp)
  402a36:	89 df                	mov    %ebx,%edi
  402a38:	e8 e3 e2 ff ff       	callq  400d20 <close@plt>
  402a3d:	b8 ff ff ff ff       	mov    $0xffffffff,%eax
  402a42:	e9 cb fd ff ff       	jmpq   402812 <submitr+0x2d7>
  402a47:	48 b8 45 72 72 6f 72 	movabs $0x43203a726f727245,%rax
  402a4e:	3a 20 43 
  402a51:	48 ba 6c 69 65 6e 74 	movabs $0x6e7520746e65696c,%rdx
  402a58:	20 75 6e 
  402a5b:	48 89 45 00          	mov    %rax,0x0(%rbp)
  402a5f:	48 89 55 08          	mov    %rdx,0x8(%rbp)
  402a63:	48 b8 61 62 6c 65 20 	movabs $0x206f7420656c6261,%rax
  402a6a:	74 6f 20 
  402a6d:	48 ba 77 72 69 74 65 	movabs $0x6f74206574697277,%rdx
  402a74:	20 74 6f 
  402a77:	48 89 45 10          	mov    %rax,0x10(%rbp)
  402a7b:	48 89 55 18          	mov    %rdx,0x18(%rbp)
  402a7f:	48 b8 20 74 68 65 20 	movabs $0x7365722065687420,%rax
  402a86:	72 65 73 
  402a89:	48 ba 75 6c 74 20 73 	movabs $0x7672657320746c75,%rdx
  402a90:	65 72 76 
  402a93:	48 89 45 20          	mov    %rax,0x20(%rbp)
  402a97:	48 89 55 28          	mov    %rdx,0x28(%rbp)
  402a9b:	66 c7 45 30 65 72    	movw   $0x7265,0x30(%rbp)
  402aa1:	c6 45 32 00          	movb   $0x0,0x32(%rbp)
  402aa5:	89 df                	mov    %ebx,%edi
  402aa7:	e8 74 e2 ff ff       	callq  400d20 <close@plt>
  402aac:	b8 ff ff ff ff       	mov    $0xffffffff,%eax
  402ab1:	e9 5c fd ff ff       	jmpq   402812 <submitr+0x2d7>
  402ab6:	48 b8 45 72 72 6f 72 	movabs $0x43203a726f727245,%rax
  402abd:	3a 20 43 
  402ac0:	48 ba 6c 69 65 6e 74 	movabs $0x6e7520746e65696c,%rdx
  402ac7:	20 75 6e 
  402aca:	48 89 45 00          	mov    %rax,0x0(%rbp)
  402ace:	48 89 55 08          	mov    %rdx,0x8(%rbp)
  402ad2:	48 b8 61 62 6c 65 20 	movabs $0x206f7420656c6261,%rax
  402ad9:	74 6f 20 
  402adc:	48 ba 72 65 61 64 20 	movabs $0x7269662064616572,%rdx
  402ae3:	66 69 72 
  402ae6:	48 89 45 10          	mov    %rax,0x10(%rbp)
  402aea:	48 89 55 18          	mov    %rdx,0x18(%rbp)
  402aee:	48 b8 73 74 20 68 65 	movabs $0x6564616568207473,%rax
  402af5:	61 64 65 
  402af8:	48 ba 72 20 66 72 6f 	movabs $0x72206d6f72662072,%rdx
  402aff:	6d 20 72 
  402b02:	48 89 45 20          	mov    %rax,0x20(%rbp)
  402b06:	48 89 55 28          	mov    %rdx,0x28(%rbp)
  402b0a:	48 b8 65 73 75 6c 74 	movabs $0x657320746c757365,%rax
  402b11:	20 73 65 
  402b14:	48 89 45 30          	mov    %rax,0x30(%rbp)
  402b18:	c7 45 38 72 76 65 72 	movl   $0x72657672,0x38(%rbp)
  402b1f:	c6 45 3c 00          	movb   $0x0,0x3c(%rbp)
  402b23:	89 df                	mov    %ebx,%edi
  402b25:	e8 f6 e1 ff ff       	callq  400d20 <close@plt>
  402b2a:	b8 ff ff ff ff       	mov    $0xffffffff,%eax
  402b2f:	e9 de fc ff ff       	jmpq   402812 <submitr+0x2d7>
  402b34:	ba 00 20 00 00       	mov    $0x2000,%edx
  402b39:	48 8d b4 24 40 20 00 	lea    0x2040(%rsp),%rsi
  402b40:	00 
  402b41:	48 8d 7c 24 30       	lea    0x30(%rsp),%rdi
  402b46:	e8 3b f8 ff ff       	callq  402386 <rio_readlineb>
  402b4b:	48 85 c0             	test   %rax,%rax
  402b4e:	0f 8e 90 00 00 00    	jle    402be4 <submitr+0x6a9>
  402b54:	44 8b 44 24 1c       	mov    0x1c(%rsp),%r8d
  402b59:	41 81 f8 c8 00 00 00 	cmp    $0xc8,%r8d
  402b60:	0f 85 02 01 00 00    	jne    402c68 <submitr+0x72d>
  402b66:	48 8d b4 24 40 20 00 	lea    0x2040(%rsp),%rsi
  402b6d:	00 
  402b6e:	48 89 ef             	mov    %rbp,%rdi
  402b71:	e8 3a e1 ff ff       	callq  400cb0 <strcpy@plt>
  402b76:	89 df                	mov    %ebx,%edi
  402b78:	e8 a3 e1 ff ff       	callq  400d20 <close@plt>
  402b7d:	bf 10 38 40 00       	mov    $0x403810,%edi
  402b82:	b9 04 00 00 00       	mov    $0x4,%ecx
  402b87:	48 89 ee             	mov    %rbp,%rsi
  402b8a:	f3 a6                	repz cmpsb %es:(%rdi),%ds:(%rsi)
  402b8c:	0f 97 c0             	seta   %al
  402b8f:	1c 00                	sbb    $0x0,%al
  402b91:	0f be c0             	movsbl %al,%eax
  402b94:	85 c0                	test   %eax,%eax
  402b96:	0f 84 76 fc ff ff    	je     402812 <submitr+0x2d7>
  402b9c:	bf 14 38 40 00       	mov    $0x403814,%edi
  402ba1:	b9 05 00 00 00       	mov    $0x5,%ecx
  402ba6:	48 89 ee             	mov    %rbp,%rsi
  402ba9:	f3 a6                	repz cmpsb %es:(%rdi),%ds:(%rsi)
  402bab:	0f 97 c0             	seta   %al
  402bae:	1c 00                	sbb    $0x0,%al
  402bb0:	0f be c0             	movsbl %al,%eax
  402bb3:	85 c0                	test   %eax,%eax
  402bb5:	0f 84 57 fc ff ff    	je     402812 <submitr+0x2d7>
  402bbb:	bf 19 38 40 00       	mov    $0x403819,%edi
  402bc0:	b9 03 00 00 00       	mov    $0x3,%ecx
  402bc5:	48 89 ee             	mov    %rbp,%rsi
  402bc8:	f3 a6                	repz cmpsb %es:(%rdi),%ds:(%rsi)
  402bca:	0f 97 c0             	seta   %al
  402bcd:	1c 00                	sbb    $0x0,%al
  402bcf:	0f be c0             	movsbl %al,%eax
  402bd2:	85 c0                	test   %eax,%eax
  402bd4:	0f 84 38 fc ff ff    	je     402812 <submitr+0x2d7>
  402bda:	b8 ff ff ff ff       	mov    $0xffffffff,%eax
  402bdf:	e9 2e fc ff ff       	jmpq   402812 <submitr+0x2d7>
  402be4:	48 b8 45 72 72 6f 72 	movabs $0x43203a726f727245,%rax
  402beb:	3a 20 43 
  402bee:	48 ba 6c 69 65 6e 74 	movabs $0x6e7520746e65696c,%rdx
  402bf5:	20 75 6e 
  402bf8:	48 89 45 00          	mov    %rax,0x0(%rbp)
  402bfc:	48 89 55 08          	mov    %rdx,0x8(%rbp)
  402c00:	48 b8 61 62 6c 65 20 	movabs $0x206f7420656c6261,%rax
  402c07:	74 6f 20 
  402c0a:	48 ba 72 65 61 64 20 	movabs $0x6174732064616572,%rdx
  402c11:	73 74 61 
  402c14:	48 89 45 10          	mov    %rax,0x10(%rbp)
  402c18:	48 89 55 18          	mov    %rdx,0x18(%rbp)
  402c1c:	48 b8 74 75 73 20 6d 	movabs $0x7373656d20737574,%rax
  402c23:	65 73 73 
  402c26:	48 ba 61 67 65 20 66 	movabs $0x6d6f726620656761,%rdx
  402c2d:	72 6f 6d 
  402c30:	48 89 45 20          	mov    %rax,0x20(%rbp)
  402c34:	48 89 55 28          	mov    %rdx,0x28(%rbp)
  402c38:	48 b8 20 72 65 73 75 	movabs $0x20746c7573657220,%rax
  402c3f:	6c 74 20 
  402c42:	48 89 45 30          	mov    %rax,0x30(%rbp)
  402c46:	c7 45 38 73 65 72 76 	movl   $0x76726573,0x38(%rbp)
  402c4d:	66 c7 45 3c 65 72    	movw   $0x7265,0x3c(%rbp)
  402c53:	c6 45 3e 00          	movb   $0x0,0x3e(%rbp)
  402c57:	89 df                	mov    %ebx,%edi
  402c59:	e8 c2 e0 ff ff       	callq  400d20 <close@plt>
  402c5e:	b8 ff ff ff ff       	mov    $0xffffffff,%eax
  402c63:	e9 aa fb ff ff       	jmpq   402812 <submitr+0x2d7>
  402c68:	4c 8d 8c 24 40 80 00 	lea    0x8040(%rsp),%r9
  402c6f:	00 
  402c70:	b9 c8 37 40 00       	mov    $0x4037c8,%ecx
  402c75:	48 c7 c2 ff ff ff ff 	mov    $0xffffffffffffffff,%rdx
  402c7c:	be 01 00 00 00       	mov    $0x1,%esi
  402c81:	48 89 ef             	mov    %rbp,%rdi
  402c84:	b8 00 00 00 00       	mov    $0x0,%eax
  402c89:	e8 d2 e1 ff ff       	callq  400e60 <__sprintf_chk@plt>
  402c8e:	89 df                	mov    %ebx,%edi
  402c90:	e8 8b e0 ff ff       	callq  400d20 <close@plt>
  402c95:	b8 ff ff ff ff       	mov    $0xffffffff,%eax
  402c9a:	e9 73 fb ff ff       	jmpq   402812 <submitr+0x2d7>
  402c9f:	e8 3c e0 ff ff       	callq  400ce0 <__stack_chk_fail@plt>

0000000000402ca4 <init_timeout>:
  402ca4:	85 ff                	test   %edi,%edi
  402ca6:	74 26                	je     402cce <init_timeout+0x2a>
  402ca8:	53                   	push   %rbx
  402ca9:	89 fb                	mov    %edi,%ebx
  402cab:	85 ff                	test   %edi,%edi
  402cad:	78 18                	js     402cc7 <init_timeout+0x23>
  402caf:	be 6f 22 40 00       	mov    $0x40226f,%esi
  402cb4:	bf 0e 00 00 00       	mov    $0xe,%edi
  402cb9:	e8 82 e0 ff ff       	callq  400d40 <signal@plt>
  402cbe:	89 df                	mov    %ebx,%edi
  402cc0:	e8 4b e0 ff ff       	callq  400d10 <alarm@plt>
  402cc5:	5b                   	pop    %rbx
  402cc6:	c3                   	retq   
  402cc7:	bb 00 00 00 00       	mov    $0x0,%ebx
  402ccc:	eb e1                	jmp    402caf <init_timeout+0xb>
  402cce:	f3 c3                	repz retq 

0000000000402cd0 <init_driver>:
  402cd0:	55                   	push   %rbp
  402cd1:	53                   	push   %rbx
  402cd2:	48 83 ec 28          	sub    $0x28,%rsp
  402cd6:	48 89 fd             	mov    %rdi,%rbp
  402cd9:	64 48 8b 04 25 28 00 	mov    %fs:0x28,%rax
  402ce0:	00 00 
  402ce2:	48 89 44 24 18       	mov    %rax,0x18(%rsp)
  402ce7:	31 c0                	xor    %eax,%eax
  402ce9:	be 01 00 00 00       	mov    $0x1,%esi
  402cee:	bf 0d 00 00 00       	mov    $0xd,%edi
  402cf3:	e8 48 e0 ff ff       	callq  400d40 <signal@plt>
  402cf8:	be 01 00 00 00       	mov    $0x1,%esi
  402cfd:	bf 1d 00 00 00       	mov    $0x1d,%edi
  402d02:	e8 39 e0 ff ff       	callq  400d40 <signal@plt>
  402d07:	be 01 00 00 00       	mov    $0x1,%esi
  402d0c:	bf 1d 00 00 00       	mov    $0x1d,%edi
  402d11:	e8 2a e0 ff ff       	callq  400d40 <signal@plt>
  402d16:	ba 00 00 00 00       	mov    $0x0,%edx
  402d1b:	be 01 00 00 00       	mov    $0x1,%esi
  402d20:	bf 02 00 00 00       	mov    $0x2,%edi
  402d25:	e8 46 e1 ff ff       	callq  400e70 <socket@plt>
  402d2a:	85 c0                	test   %eax,%eax
  402d2c:	0f 88 9c 00 00 00    	js     402dce <init_driver+0xfe>
  402d32:	89 c3                	mov    %eax,%ebx
  402d34:	bf 1c 38 40 00       	mov    $0x40381c,%edi
  402d39:	e8 12 e0 ff ff       	callq  400d50 <gethostbyname@plt>
  402d3e:	48 85 c0             	test   %rax,%rax
  402d41:	0f 84 d3 00 00 00    	je     402e1a <init_driver+0x14a>
  402d47:	48 c7 44 24 02 00 00 	movq   $0x0,0x2(%rsp)
  402d4e:	00 00 
  402d50:	c7 44 24 0a 00 00 00 	movl   $0x0,0xa(%rsp)
  402d57:	00 
  402d58:	66 c7 44 24 0e 00 00 	movw   $0x0,0xe(%rsp)
  402d5f:	66 c7 04 24 02 00    	movw   $0x2,(%rsp)
  402d65:	48 63 50 14          	movslq 0x14(%rax),%rdx
  402d69:	48 8b 40 18          	mov    0x18(%rax),%rax
  402d6d:	48 8b 30             	mov    (%rax),%rsi
  402d70:	48 8d 7c 24 04       	lea    0x4(%rsp),%rdi
  402d75:	b9 0c 00 00 00       	mov    $0xc,%ecx
  402d7a:	e8 e1 df ff ff       	callq  400d60 <__memmove_chk@plt>
  402d7f:	66 c7 44 24 02 3c 9a 	movw   $0x9a3c,0x2(%rsp)
  402d86:	ba 10 00 00 00       	mov    $0x10,%edx
  402d8b:	48 89 e6             	mov    %rsp,%rsi
  402d8e:	89 df                	mov    %ebx,%edi
  402d90:	e8 ab e0 ff ff       	callq  400e40 <connect@plt>
  402d95:	85 c0                	test   %eax,%eax
  402d97:	0f 88 e5 00 00 00    	js     402e82 <init_driver+0x1b2>
  402d9d:	89 df                	mov    %ebx,%edi
  402d9f:	e8 7c df ff ff       	callq  400d20 <close@plt>
  402da4:	66 c7 45 00 4f 4b    	movw   $0x4b4f,0x0(%rbp)
  402daa:	c6 45 02 00          	movb   $0x0,0x2(%rbp)
  402dae:	b8 00 00 00 00       	mov    $0x0,%eax
  402db3:	48 8b 4c 24 18       	mov    0x18(%rsp),%rcx
  402db8:	64 48 33 0c 25 28 00 	xor    %fs:0x28,%rcx
  402dbf:	00 00 
  402dc1:	0f 85 0e 01 00 00    	jne    402ed5 <init_driver+0x205>
  402dc7:	48 83 c4 28          	add    $0x28,%rsp
  402dcb:	5b                   	pop    %rbx
  402dcc:	5d                   	pop    %rbp
  402dcd:	c3                   	retq   
  402dce:	48 b8 45 72 72 6f 72 	movabs $0x43203a726f727245,%rax
  402dd5:	3a 20 43 
  402dd8:	48 ba 6c 69 65 6e 74 	movabs $0x6e7520746e65696c,%rdx
  402ddf:	20 75 6e 
  402de2:	48 89 45 00          	mov    %rax,0x0(%rbp)
  402de6:	48 89 55 08          	mov    %rdx,0x8(%rbp)
  402dea:	48 b8 61 62 6c 65 20 	movabs $0x206f7420656c6261,%rax
  402df1:	74 6f 20 
  402df4:	48 ba 63 72 65 61 74 	movabs $0x7320657461657263,%rdx
  402dfb:	65 20 73 
  402dfe:	48 89 45 10          	mov    %rax,0x10(%rbp)
  402e02:	48 89 55 18          	mov    %rdx,0x18(%rbp)
  402e06:	c7 45 20 6f 63 6b 65 	movl   $0x656b636f,0x20(%rbp)
  402e0d:	66 c7 45 24 74 00    	movw   $0x74,0x24(%rbp)
  402e13:	b8 ff ff ff ff       	mov    $0xffffffff,%eax
  402e18:	eb 99                	jmp    402db3 <init_driver+0xe3>
  402e1a:	48 b8 45 72 72 6f 72 	movabs $0x44203a726f727245,%rax
  402e21:	3a 20 44 
  402e24:	48 ba 4e 53 20 69 73 	movabs $0x6e7520736920534e,%rdx
  402e2b:	20 75 6e 
  402e2e:	48 89 45 00          	mov    %rax,0x0(%rbp)
  402e32:	48 89 55 08          	mov    %rdx,0x8(%rbp)
  402e36:	48 b8 61 62 6c 65 20 	movabs $0x206f7420656c6261,%rax
  402e3d:	74 6f 20 
  402e40:	48 ba 72 65 73 6f 6c 	movabs $0x2065766c6f736572,%rdx
  402e47:	76 65 20 
  402e4a:	48 89 45 10          	mov    %rax,0x10(%rbp)
  402e4e:	48 89 55 18          	mov    %rdx,0x18(%rbp)
  402e52:	48 b8 73 65 72 76 65 	movabs $0x6120726576726573,%rax
  402e59:	72 20 61 
  402e5c:	48 89 45 20          	mov    %rax,0x20(%rbp)
  402e60:	c7 45 28 64 64 72 65 	movl   $0x65726464,0x28(%rbp)
  402e67:	66 c7 45 2c 73 73    	movw   $0x7373,0x2c(%rbp)
  402e6d:	c6 45 2e 00          	movb   $0x0,0x2e(%rbp)
  402e71:	89 df                	mov    %ebx,%edi
  402e73:	e8 a8 de ff ff       	callq  400d20 <close@plt>
  402e78:	b8 ff ff ff ff       	mov    $0xffffffff,%eax
  402e7d:	e9 31 ff ff ff       	jmpq   402db3 <init_driver+0xe3>
  402e82:	48 b8 45 72 72 6f 72 	movabs $0x55203a726f727245,%rax
  402e89:	3a 20 55 
  402e8c:	48 ba 6e 61 62 6c 65 	movabs $0x6f7420656c62616e,%rdx
  402e93:	20 74 6f 
  402e96:	48 89 45 00          	mov    %rax,0x0(%rbp)
  402e9a:	48 89 55 08          	mov    %rdx,0x8(%rbp)
  402e9e:	48 b8 20 63 6f 6e 6e 	movabs $0x7463656e6e6f6320,%rax
  402ea5:	65 63 74 
  402ea8:	48 ba 20 74 6f 20 73 	movabs $0x76726573206f7420,%rdx
  402eaf:	65 72 76 
  402eb2:	48 89 45 10          	mov    %rax,0x10(%rbp)
  402eb6:	48 89 55 18          	mov    %rdx,0x18(%rbp)
  402eba:	66 c7 45 20 65 72    	movw   $0x7265,0x20(%rbp)
  402ec0:	c6 45 22 00          	movb   $0x0,0x22(%rbp)
  402ec4:	89 df                	mov    %ebx,%edi
  402ec6:	e8 55 de ff ff       	callq  400d20 <close@plt>
  402ecb:	b8 ff ff ff ff       	mov    $0xffffffff,%eax
  402ed0:	e9 de fe ff ff       	jmpq   402db3 <init_driver+0xe3>
  402ed5:	e8 06 de ff ff       	callq  400ce0 <__stack_chk_fail@plt>

0000000000402eda <driver_post>:
  402eda:	53                   	push   %rbx
  402edb:	4c 89 cb             	mov    %r9,%rbx
  402ede:	45 85 c0             	test   %r8d,%r8d
  402ee1:	75 18                	jne    402efb <driver_post+0x21>
  402ee3:	48 85 ff             	test   %rdi,%rdi
  402ee6:	74 05                	je     402eed <driver_post+0x13>
  402ee8:	80 3f 00             	cmpb   $0x0,(%rdi)
  402eeb:	75 35                	jne    402f22 <driver_post+0x48>
  402eed:	66 c7 03 4f 4b       	movw   $0x4b4f,(%rbx)
  402ef2:	c6 43 02 00          	movb   $0x0,0x2(%rbx)
  402ef6:	44 89 c0             	mov    %r8d,%eax
  402ef9:	5b                   	pop    %rbx
  402efa:	c3                   	retq   
  402efb:	48 89 ca             	mov    %rcx,%rdx
  402efe:	be 34 38 40 00       	mov    $0x403834,%esi
  402f03:	bf 01 00 00 00       	mov    $0x1,%edi
  402f08:	b8 00 00 00 00       	mov    $0x0,%eax
  402f0d:	e8 ce de ff ff       	callq  400de0 <__printf_chk@plt>
  402f12:	66 c7 03 4f 4b       	movw   $0x4b4f,(%rbx)
  402f17:	c6 43 02 00          	movb   $0x0,0x2(%rbx)
  402f1b:	b8 00 00 00 00       	mov    $0x0,%eax
  402f20:	eb d7                	jmp    402ef9 <driver_post+0x1f>
  402f22:	48 83 ec 08          	sub    $0x8,%rsp
  402f26:	41 51                	push   %r9
  402f28:	49 89 c9             	mov    %rcx,%r9
  402f2b:	49 89 d0             	mov    %rdx,%r8
  402f2e:	48 89 f9             	mov    %rdi,%rcx
  402f31:	48 89 f2             	mov    %rsi,%rdx
  402f34:	be 9a 3c 00 00       	mov    $0x3c9a,%esi
  402f39:	bf 1c 38 40 00       	mov    $0x40381c,%edi
  402f3e:	e8 f8 f5 ff ff       	callq  40253b <submitr>
  402f43:	48 83 c4 10          	add    $0x10,%rsp
  402f47:	eb b0                	jmp    402ef9 <driver_post+0x1f>

0000000000402f49 <check>:
  402f49:	89 f8                	mov    %edi,%eax
  402f4b:	c1 e8 1c             	shr    $0x1c,%eax
  402f4e:	85 c0                	test   %eax,%eax
  402f50:	74 1d                	je     402f6f <check+0x26>
  402f52:	b9 00 00 00 00       	mov    $0x0,%ecx
  402f57:	83 f9 1f             	cmp    $0x1f,%ecx
  402f5a:	7f 0d                	jg     402f69 <check+0x20>
  402f5c:	89 f8                	mov    %edi,%eax
  402f5e:	d3 e8                	shr    %cl,%eax
  402f60:	3c 0a                	cmp    $0xa,%al
  402f62:	74 11                	je     402f75 <check+0x2c>
  402f64:	83 c1 08             	add    $0x8,%ecx
  402f67:	eb ee                	jmp    402f57 <check+0xe>
  402f69:	b8 01 00 00 00       	mov    $0x1,%eax
  402f6e:	c3                   	retq   
  402f6f:	b8 00 00 00 00       	mov    $0x0,%eax
  402f74:	c3                   	retq   
  402f75:	b8 00 00 00 00       	mov    $0x0,%eax
  402f7a:	c3                   	retq   

0000000000402f7b <gencookie>:
  402f7b:	53                   	push   %rbx
  402f7c:	83 c7 01             	add    $0x1,%edi
  402f7f:	e8 0c dd ff ff       	callq  400c90 <srandom@plt>
  402f84:	e8 17 de ff ff       	callq  400da0 <random@plt>
  402f89:	89 c3                	mov    %eax,%ebx
  402f8b:	89 c7                	mov    %eax,%edi
  402f8d:	e8 b7 ff ff ff       	callq  402f49 <check>
  402f92:	85 c0                	test   %eax,%eax
  402f94:	74 ee                	je     402f84 <gencookie+0x9>
  402f96:	89 d8                	mov    %ebx,%eax
  402f98:	5b                   	pop    %rbx
  402f99:	c3                   	retq   
  402f9a:	66 0f 1f 44 00 00    	nopw   0x0(%rax,%rax,1)

0000000000402fa0 <__libc_csu_init>:
  402fa0:	41 57                	push   %r15
  402fa2:	41 56                	push   %r14
  402fa4:	49 89 d7             	mov    %rdx,%r15
  402fa7:	41 55                	push   %r13
  402fa9:	41 54                	push   %r12
  402fab:	4c 8d 25 5e 1e 20 00 	lea    0x201e5e(%rip),%r12        # 604e10 <__frame_dummy_init_array_entry>
  402fb2:	55                   	push   %rbp
  402fb3:	48 8d 2d 5e 1e 20 00 	lea    0x201e5e(%rip),%rbp        # 604e18 <__init_array_end>
  402fba:	53                   	push   %rbx
  402fbb:	41 89 fd             	mov    %edi,%r13d
  402fbe:	49 89 f6             	mov    %rsi,%r14
  402fc1:	4c 29 e5             	sub    %r12,%rbp
  402fc4:	48 83 ec 08          	sub    $0x8,%rsp
  402fc8:	48 c1 fd 03          	sar    $0x3,%rbp
  402fcc:	e8 77 dc ff ff       	callq  400c48 <_init>
  402fd1:	48 85 ed             	test   %rbp,%rbp
  402fd4:	74 20                	je     402ff6 <__libc_csu_init+0x56>
  402fd6:	31 db                	xor    %ebx,%ebx
  402fd8:	0f 1f 84 00 00 00 00 	nopl   0x0(%rax,%rax,1)
  402fdf:	00 
  402fe0:	4c 89 fa             	mov    %r15,%rdx
  402fe3:	4c 89 f6             	mov    %r14,%rsi
  402fe6:	44 89 ef             	mov    %r13d,%edi
  402fe9:	41 ff 14 dc          	callq  *(%r12,%rbx,8)
  402fed:	48 83 c3 01          	add    $0x1,%rbx
  402ff1:	48 39 dd             	cmp    %rbx,%rbp
  402ff4:	75 ea                	jne    402fe0 <__libc_csu_init+0x40>
  402ff6:	48 83 c4 08          	add    $0x8,%rsp
  402ffa:	5b                   	pop    %rbx
  402ffb:	5d                   	pop    %rbp
  402ffc:	41 5c                	pop    %r12
  402ffe:	41 5d                	pop    %r13
  403000:	41 5e                	pop    %r14
  403002:	41 5f                	pop    %r15
  403004:	c3                   	retq   
  403005:	90                   	nop
  403006:	66 2e 0f 1f 84 00 00 	nopw   %cs:0x0(%rax,%rax,1)
  40300d:	00 00 00 

0000000000403010 <__libc_csu_fini>:
  403010:	f3 c3                	repz retq 

Disassembly of section .fini:

0000000000403014 <_fini>:
  403014:	48 83 ec 08          	sub    $0x8,%rsp
  403018:	48 83 c4 08          	add    $0x8,%rsp
  40301c:	c3                   	retq   
